(dp1
S'fecha'
p2
(dp3
S'type'
p4
S'date'
p5
sS'sortable'
p6
I3
sS'sql'
p7
S'DATE'
p8
ssS'medico'
p9
(dp10
g4
S'reference medico'
p11
sg6
I4
sg7
S'INTEGER REFERENCES medico(id) ON DELETE CASCADE'
p12
ssS'comentario'
p13
(dp14
g4
S'text'
p15
sg6
I5
sg7
S'TEXT'
p16
ssS'id'
p17
(dp18
g4
g17
sg6
I1
sg7
S'INTEGER PRIMARY KEY AUTOINCREMENT'
p19
ssS'paciente'
p20
(dp21
g4
S'reference paciente'
p22
sg6
I2
sg7
S'INTEGER REFERENCES paciente(id) ON DELETE CASCADE'
p23
ss.