(dp1
S'direccion'
p2
(dp3
S'type'
p4
S'string'
p5
sS'sortable'
p6
I4
sS'sql'
p7
S'CHAR(512)'
p8
ssS'id'
p9
(dp10
g4
g9
sg6
I1
sg7
S'INTEGER PRIMARY KEY AUTOINCREMENT'
p11
ssS'nombre'
p12
(dp13
g4
g5
sg6
I2
sg7
S'CHAR(512)'
p14
ssS'telefono'
p15
(dp16
g4
g5
sg6
I5
sg7
S'CHAR(512)'
p17
ssS'comentarios'
p18
(dp19
g4
S'text'
p20
sg6
I6
sg7
S'TEXT'
p21
ssS'sigla'
p22
(dp23
g4
g5
sg6
I3
sg7
S'CHAR(512)'
p24
ss.