(dp1
S'output'
p2
S"<type 'exceptions.SyntaxError'> invalid syntax (menu.py, line 59)"
p3
sS'layer'
p4
S'/home/marco/projects/final/web2py/applications/woppi/models/menu.py'
p5
sS'code'
p6
S"# -*- coding: utf-8 -*-\n# this file is released under public domain and you can use without limitations\n\n#########################################################################\n## Customize your APP title, subtitle and menus here\n#########################################################################\n\nresponse.title = ' '.join(word.capitalize() for word in request.application.split('_'))\nresponse.subtitle = T('Heath care system')\n\n## read more at http://dev.w3.org/html5/markup/meta.name.html\nresponse.meta.author = 'Marco Mansilla  <contacto@marcomansilla.com.ar>'\nresponse.meta.description = 'Sistema de gestion de pacientes'\nresponse.meta.keywords = 'web2py, python, framework'\nresponse.meta.generator = 'Web2py Web Framework'\nresponse.meta.copyright = 'Copyright 2011'\n\n## your http://google.com/analytics id\nresponse.google_analytics_id = None\n\n#########################################################################\n## this is the main application menu add/remove items as required\n#########################################################################\n\nresponse.menu = [\n    (T('Home'), False, URL('default','index'), [])\n    ]\n\n#########################################################################\n## provide shortcuts for development. remove in production\n#########################################################################\n\ndef _():\n    # shortcuts\n    app = request.application\n    ctr = request.controller\n    # useful links to internal and external resources\n    response.menu+=[\n        (SPAN('Administracion',_style='color:yellow'),False, None, [\n                (T('Medicos'),False,URL('woppi','interno','index')),\n                (T('Especialidades'),False,URL('woppi','interno','especialidades')),\n                (T('Personal'),False,URL('woppi','interno','personal')),\n                (T('Community'),False, None, [\n                        (T('Groups'),False,'http://www.web2py.com/examples/default/usergroups'),\n                        (T('Twitter'),False,'http://twitter.com/web2py'),\n                        (T('Live Chat'),False,'http://webchat.freenode.net/?channels=web2py'),\n                        ]),\n                (T('Plugins'),False,None, [\n                        ('plugin_wiki',False,'http://web2py.com/examples/default/download'),\n                        (T('Other Plugins'),False,'http://web2py.com/plugins'),\n                        (T('Layout Plugins'),False,'http://web2py.com/layouts'),\n                        ])\n                ]\n\n        (SPAN('Gestion general',_style='color:yellow'),False, None, [\n        \n        \n        ]\n         )]\n_()\n\n"
p7
sS'snapshot'
p8
(dp9
S'exception'
p10
(dp11
S'__getslice__'
p12
S"<method-wrapper '__getslice__' of exceptions.SyntaxError object>"
p13
sS'text'
p14
S"'         )]\\n'"
p15
sS'__str__'
p16
S"<method-wrapper '__str__' of exceptions.SyntaxError object>"
p17
sS'__reduce__'
p18
S'<built-in method __reduce__ of exceptions.SyntaxError object>'
p19
sS'__dict__'
p20
S'{}'
p21
sS'__sizeof__'
p22
S'<built-in method __sizeof__ of exceptions.SyntaxError object>'
p23
sS'__init__'
p24
S"<method-wrapper '__init__' of exceptions.SyntaxError object>"
p25
sS'__setattr__'
p26
S"<method-wrapper '__setattr__' of exceptions.SyntaxError object>"
p27
sS'__reduce_ex__'
p28
S'<built-in method __reduce_ex__ of exceptions.SyntaxError object>'
p29
sS'__new__'
p30
S'<built-in method __new__ of type object>'
p31
sS'__format__'
p32
S'<built-in method __format__ of exceptions.SyntaxError object>'
p33
sS'__class__'
p34
S"<type 'exceptions.SyntaxError'>"
p35
sS'filename'
p36
S"'/home/marco/projects/final/web2py/applications/woppi/models/menu.py'"
p37
sS'lineno'
p38
S'59'
p39
sS'msg'
p40
S"'invalid syntax'"
p41
sS'__doc__'
p42
S"'Invalid syntax.'"
p43
sS'__getitem__'
p44
S"<method-wrapper '__getitem__' of exceptions.SyntaxError object>"
p45
sS'__setstate__'
p46
S'<built-in method __setstate__ of exceptions.SyntaxError object>'
p47
sS'__getattribute__'
p48
S"<method-wrapper '__getattribute__' of exceptions.SyntaxError object>"
p49
sS'print_file_and_line'
p50
S'None'
p51
sS'args'
p52
S"('invalid syntax', ('/home/marco/projects/final/web2py/applications/woppi/models/menu.py', 59, 11, '         )]\\n'))"
p53
sS'__subclasshook__'
p54
S'<built-in method __subclasshook__ of type object>'
p55
sS'offset'
p56
S'11'
p57
sS'__unicode__'
p58
S'<built-in method __unicode__ of exceptions.SyntaxError object>'
p59
sS'__delattr__'
p60
S"<method-wrapper '__delattr__' of exceptions.SyntaxError object>"
p61
sS'__repr__'
p62
S"<method-wrapper '__repr__' of exceptions.SyntaxError object>"
p63
sS'__hash__'
p64
S"<method-wrapper '__hash__' of exceptions.SyntaxError object>"
p65
ssS'evalue'
p66
S'invalid syntax (menu.py, line 59)'
p67
sS'request'
p68
ccopy_reg
_reconstructor
p69
(cgluon.html
BEAUTIFY
p70
c__builtin__
object
p71
NtRp72
(dp73
S'attributes'
p74
(dp75
sS'components'
p76
(lp77
g69
(cgluon.html
TABLE
p78
g71
NtRp79
(dp80
g74
(dp81
S'level'
p82
I5
ssS'parent'
p83
Nsg76
(lp84
g69
(cgluon.html
TR
p85
g71
NtRp86
(dp87
g74
(dp88
sg83
g79
sg76
(lp89
g69
(cgluon.html
TD
p90
g71
NtRp91
(dp92
g74
(dp93
S'_style'
p94
S'font-weight:bold;vertical-align:top'
p95
ssg83
g86
sg76
(lp96
S'ajax'
p97
asbag69
(g90
g71
NtRp98
(dp99
g74
(dp100
S'_valign'
p101
S'top'
p102
ssg83
g86
sg76
(lp103
S':'
asbag69
(g90
g71
NtRp104
(dp105
g74
(dp106
sg83
g86
sg76
(lp107
g69
(g70
g71
NtRp108
(dp109
g74
(dp110
g82
I5
ssg83
g104
sg76
(lp111
S'False'
p112
asbasbasbag69
(g85
g71
NtRp113
(dp114
g74
(dp115
sg83
g79
sg76
(lp116
g69
(g90
g71
NtRp117
(dp118
g74
(dp119
g94
g95
ssg83
g113
sg76
(lp120
S'application'
p121
asbag69
(g90
g71
NtRp122
(dp123
g74
(dp124
g101
g102
ssg83
g113
sg76
(lp125
S':'
asbag69
(g90
g71
NtRp126
(dp127
g74
(dp128
sg83
g113
sg76
(lp129
g69
(g70
g71
NtRp130
(dp131
g74
(dp132
g82
I5
ssg83
g126
sg76
(lp133
S'woppi'
p134
asbasbasbag69
(g85
g71
NtRp135
(dp136
g74
(dp137
sg83
g79
sg76
(lp138
g69
(g90
g71
NtRp139
(dp140
g74
(dp141
g94
g95
ssg83
g135
sg76
(lp142
g52
asbag69
(g90
g71
NtRp143
(dp144
g74
(dp145
g101
g102
ssg83
g135
sg76
(lp146
S':'
asbag69
(g90
g71
NtRp147
(dp148
g74
(dp149
sg83
g135
sg76
(lp150
g69
(g70
g71
NtRp151
(dp152
g74
(dp153
g82
I5
ssg83
g147
sg76
(lp154
g69
(g78
g71
NtRp155
(dp156
g74
(dp157
g82
I4
ssg83
Nsg76
(lp158
sbasbasbasbag69
(g85
g71
NtRp159
(dp160
g74
(dp161
sg83
g79
sg76
(lp162
g69
(g90
g71
NtRp163
(dp164
g74
(dp165
g94
g95
ssg83
g159
sg76
(lp166
S'body'
p167
asbag69
(g90
g71
NtRp168
(dp169
g74
(dp170
g101
g102
ssg83
g159
sg76
(lp171
S':'
asbag69
(g90
g71
NtRp172
(dp173
g74
(dp174
sg83
g159
sg76
(lp175
g69
(g70
g71
NtRp176
(dp177
g74
(dp178
g82
I5
ssg83
g172
sg76
(lp179
S'<cStringIO.StringO object at 0x1de0f10>'
p180
asbasbasbag69
(g85
g71
NtRp181
(dp182
g74
(dp183
sg83
g79
sg76
(lp184
g69
(g90
g71
NtRp185
(dp186
g74
(dp187
g94
g95
ssg83
g181
sg76
(lp188
S'client'
p189
asbag69
(g90
g71
NtRp190
(dp191
g74
(dp192
g101
g102
ssg83
g181
sg76
(lp193
S':'
asbag69
(g90
g71
NtRp194
(dp195
g74
(dp196
sg83
g181
sg76
(lp197
g69
(g70
g71
NtRp198
(dp199
g74
(dp200
g82
I5
ssg83
g194
sg76
(lp201
S'127.0.0.1'
p202
asbasbasbag69
(g85
g71
NtRp203
(dp204
g74
(dp205
sg83
g79
sg76
(lp206
g69
(g90
g71
NtRp207
(dp208
g74
(dp209
g94
g95
ssg83
g203
sg76
(lp210
S'controller'
p211
asbag69
(g90
g71
NtRp212
(dp213
g74
(dp214
g101
g102
ssg83
g203
sg76
(lp215
S':'
asbag69
(g90
g71
NtRp216
(dp217
g74
(dp218
sg83
g203
sg76
(lp219
g69
(g70
g71
NtRp220
(dp221
g74
(dp222
g82
I5
ssg83
g216
sg76
(lp223
S'interno'
p224
asbasbasbag69
(g85
g71
NtRp225
(dp226
g74
(dp227
sg83
g79
sg76
(lp228
g69
(g90
g71
NtRp229
(dp230
g74
(dp231
g94
g95
ssg83
g225
sg76
(lp232
S'cookies'
p233
asbag69
(g90
g71
NtRp234
(dp235
g74
(dp236
g101
g102
ssg83
g225
sg76
(lp237
S':'
asbag69
(g90
g71
NtRp238
(dp239
g74
(dp240
sg83
g225
sg76
(lp241
g69
(g70
g71
NtRp242
(dp243
g74
(dp244
g82
I5
ssg83
g238
sg76
(lp245
g69
(g78
g71
NtRp246
(dp247
g74
(dp248
g82
I4
ssg83
Nsg76
(lp249
g69
(g85
g71
NtRp250
(dp251
g74
(dp252
sg83
g246
sg76
(lp253
g69
(g90
g71
NtRp254
(dp255
g74
(dp256
g94
g95
ssg83
g250
sg76
(lp257
S'session_id_woppi'
p258
asbag69
(g90
g71
NtRp259
(dp260
g74
(dp261
g101
g102
ssg83
g250
sg76
(lp262
S':'
asbag69
(g90
g71
NtRp263
(dp264
g74
(dp265
sg83
g250
sg76
(lp266
g69
(g70
g71
NtRp267
(dp268
g74
(dp269
g82
I4
ssg83
g263
sg76
(lp270
g69
(g78
g71
NtRp271
(dp272
g74
(dp273
g82
I3
ssg83
Nsg76
(lp274
g69
(g85
g71
NtRp275
(dp276
g74
(dp277
sg83
g271
sg76
(lp278
g69
(g90
g71
NtRp279
(dp280
g74
(dp281
g94
g95
ssg83
g275
sg76
(lp282
S'comment'
p283
asbag69
(g90
g71
NtRp284
(dp285
g74
(dp286
g101
g102
ssg83
g275
sg76
(lp287
S':'
asbag69
(g90
g71
NtRp288
(dp289
g74
(dp290
sg83
g275
sg76
(lp291
g69
(g70
g71
NtRp292
(dp293
g74
(dp294
g82
I3
ssg83
g288
sg76
(lp295
S''
asbasbasbag69
(g85
g71
NtRp296
(dp297
g74
(dp298
sg83
g271
sg76
(lp299
g69
(g90
g71
NtRp300
(dp301
g74
(dp302
g94
g95
ssg83
g296
sg76
(lp303
S'domain'
p304
asbag69
(g90
g71
NtRp305
(dp306
g74
(dp307
g101
g102
ssg83
g296
sg76
(lp308
S':'
asbag69
(g90
g71
NtRp309
(dp310
g74
(dp311
sg83
g296
sg76
(lp312
g69
(g70
g71
NtRp313
(dp314
g74
(dp315
g82
I3
ssg83
g309
sg76
(lp316
S''
asbasbasbag69
(g85
g71
NtRp317
(dp318
g74
(dp319
sg83
g271
sg76
(lp320
g69
(g90
g71
NtRp321
(dp322
g74
(dp323
g94
g95
ssg83
g317
sg76
(lp324
S'expires'
p325
asbag69
(g90
g71
NtRp326
(dp327
g74
(dp328
g101
g102
ssg83
g317
sg76
(lp329
S':'
asbag69
(g90
g71
NtRp330
(dp331
g74
(dp332
sg83
g317
sg76
(lp333
g69
(g70
g71
NtRp334
(dp335
g74
(dp336
g82
I3
ssg83
g330
sg76
(lp337
S''
asbasbasbag69
(g85
g71
NtRp338
(dp339
g74
(dp340
sg83
g271
sg76
(lp341
g69
(g90
g71
NtRp342
(dp343
g74
(dp344
g94
g95
ssg83
g338
sg76
(lp345
S'httponly'
p346
asbag69
(g90
g71
NtRp347
(dp348
g74
(dp349
g101
g102
ssg83
g338
sg76
(lp350
S':'
asbag69
(g90
g71
NtRp351
(dp352
g74
(dp353
sg83
g338
sg76
(lp354
g69
(g70
g71
NtRp355
(dp356
g74
(dp357
g82
I3
ssg83
g351
sg76
(lp358
S''
asbasbasbag69
(g85
g71
NtRp359
(dp360
g74
(dp361
sg83
g271
sg76
(lp362
g69
(g90
g71
NtRp363
(dp364
g74
(dp365
g94
g95
ssg83
g359
sg76
(lp366
S'max-age'
p367
asbag69
(g90
g71
NtRp368
(dp369
g74
(dp370
g101
g102
ssg83
g359
sg76
(lp371
S':'
asbag69
(g90
g71
NtRp372
(dp373
g74
(dp374
sg83
g359
sg76
(lp375
g69
(g70
g71
NtRp376
(dp377
g74
(dp378
g82
I3
ssg83
g372
sg76
(lp379
S''
asbasbasbag69
(g85
g71
NtRp380
(dp381
g74
(dp382
sg83
g271
sg76
(lp383
g69
(g90
g71
NtRp384
(dp385
g74
(dp386
g94
g95
ssg83
g380
sg76
(lp387
S'path'
p388
asbag69
(g90
g71
NtRp389
(dp390
g74
(dp391
g101
g102
ssg83
g380
sg76
(lp392
S':'
asbag69
(g90
g71
NtRp393
(dp394
g74
(dp395
sg83
g380
sg76
(lp396
g69
(g70
g71
NtRp397
(dp398
g74
(dp399
g82
I3
ssg83
g393
sg76
(lp400
S''
asbasbasbag69
(g85
g71
NtRp401
(dp402
g74
(dp403
sg83
g271
sg76
(lp404
g69
(g90
g71
NtRp405
(dp406
g74
(dp407
g94
g95
ssg83
g401
sg76
(lp408
S'secure'
p409
asbag69
(g90
g71
NtRp410
(dp411
g74
(dp412
g101
g102
ssg83
g401
sg76
(lp413
S':'
asbag69
(g90
g71
NtRp414
(dp415
g74
(dp416
sg83
g401
sg76
(lp417
g69
(g70
g71
NtRp418
(dp419
g74
(dp420
g82
I3
ssg83
g414
sg76
(lp421
S''
asbasbasbag69
(g85
g71
NtRp422
(dp423
g74
(dp424
sg83
g271
sg76
(lp425
g69
(g90
g71
NtRp426
(dp427
g74
(dp428
g94
g95
ssg83
g422
sg76
(lp429
S'version'
p430
asbag69
(g90
g71
NtRp431
(dp432
g74
(dp433
g101
g102
ssg83
g422
sg76
(lp434
S':'
asbag69
(g90
g71
NtRp435
(dp436
g74
(dp437
sg83
g422
sg76
(lp438
g69
(g70
g71
NtRp439
(dp440
g74
(dp441
g82
I3
ssg83
g435
sg76
(lp442
S''
asbasbasbasbasbasbasbasbasbasbasbag69
(g85
g71
NtRp443
(dp444
g74
(dp445
sg83
g79
sg76
(lp446
g69
(g90
g71
NtRp447
(dp448
g74
(dp449
g94
g95
ssg83
g443
sg76
(lp450
S'env'
p451
asbag69
(g90
g71
NtRp452
(dp453
g74
(dp454
g101
g102
ssg83
g443
sg76
(lp455
S':'
asbag69
(g90
g71
NtRp456
(dp457
g74
(dp458
sg83
g443
sg76
(lp459
g69
(g70
g71
NtRp460
(dp461
g74
(dp462
g82
I5
ssg83
g456
sg76
(lp463
g69
(g78
g71
NtRp464
(dp465
g74
(dp466
g82
I4
ssg83
Nsg76
(lp467
g69
(g85
g71
NtRp468
(dp469
g74
(dp470
sg83
g464
sg76
(lp471
g69
(g90
g71
NtRp472
(dp473
g74
(dp474
g94
g95
ssg83
g468
sg76
(lp475
S'app_folders'
p476
asbag69
(g90
g71
NtRp477
(dp478
g74
(dp479
g101
g102
ssg83
g468
sg76
(lp480
S':'
asbag69
(g90
g71
NtRp481
(dp482
g74
(dp483
sg83
g468
sg76
(lp484
g69
(g70
g71
NtRp485
(dp486
g74
(dp487
g82
I4
ssg83
g481
sg76
(lp488
S"set(['/home/marco/projects/final/web2py/applications/woppi/'])"
p489
asbasbasbag69
(g85
g71
NtRp490
(dp491
g74
(dp492
sg83
g464
sg76
(lp493
g69
(g90
g71
NtRp494
(dp495
g74
(dp496
g94
g95
ssg83
g490
sg76
(lp497
S'applications_parent'
p498
asbag69
(g90
g71
NtRp499
(dp500
g74
(dp501
g101
g102
ssg83
g490
sg76
(lp502
S':'
asbag69
(g90
g71
NtRp503
(dp504
g74
(dp505
sg83
g490
sg76
(lp506
g69
(g70
g71
NtRp507
(dp508
g74
(dp509
g82
I4
ssg83
g503
sg76
(lp510
S'/home/marco/projects/final/web2py'
p511
asbasbasbag69
(g85
g71
NtRp512
(dp513
g74
(dp514
sg83
g464
sg76
(lp515
g69
(g90
g71
NtRp516
(dp517
g74
(dp518
g94
g95
ssg83
g512
sg76
(lp519
S'cmd_args'
p520
asbag69
(g90
g71
NtRp521
(dp522
g74
(dp523
g101
g102
ssg83
g512
sg76
(lp524
S':'
asbag69
(g90
g71
NtRp525
(dp526
g74
(dp527
sg83
g512
sg76
(lp528
g69
(g70
g71
NtRp529
(dp530
g74
(dp531
g82
I4
ssg83
g525
sg76
(lp532
g69
(g78
g71
NtRp533
(dp534
g74
(dp535
g82
I3
ssg83
Nsg76
(lp536
sbasbasbasbag69
(g85
g71
NtRp537
(dp538
g74
(dp539
sg83
g464
sg76
(lp540
g69
(g90
g71
NtRp541
(dp542
g74
(dp543
g94
g95
ssg83
g537
sg76
(lp544
S'cmd_options'
p545
asbag69
(g90
g71
NtRp546
(dp547
g74
(dp548
g101
g102
ssg83
g537
sg76
(lp549
S':'
asbag69
(g90
g71
NtRp550
(dp551
g74
(dp552
sg83
g537
sg76
(lp553
g69
(g70
g71
NtRp554
(dp555
g74
(dp556
g82
I4
ssg83
g550
sg76
(lp557
S"<Values at 0x17c2908: {'verbose': False, 'ip': '127.0.0.1', 'shutdown_timeout': 5, 'taskbar': False, 'nocron': False, 'pid_filename': 'httpserver.pid', 'maxthreads': None, 'softcron': False, 'server_name': 'malena', 'bpython': False, 'nogui': False, 'port': 8000, 'extcron': False, 'debuglevel': 30, 'test': None, 'folder': '/home/marco/projects/final/web2py', 'config': '', 'import_models': False, 'winservice': '', 'shell': None, 'run': '', 'log_filename': 'httpserver.log', 'args': [''], 'socket_timeout': 5, 'ssl_ca_certificate': None, 'scheduler': None, 'profiler_filename': None, 'ssl_private_key': '', 'password': 'asd', 'request_queue_size': 5, 'ssl_certificate': '', 'cronjob': False, 'numthreads': None, 'quiet': False, 'interfaces': None, 'minthreads': None, 'timeout': 10, 'plain': False, 'nobanner': False}>"
p558
asbasbasbag69
(g85
g71
NtRp559
(dp560
g74
(dp561
sg83
g464
sg76
(lp562
g69
(g90
g71
NtRp563
(dp564
g74
(dp565
g94
g95
ssg83
g559
sg76
(lp566
S'db_sessions'
p567
asbag69
(g90
g71
NtRp568
(dp569
g74
(dp570
g101
g102
ssg83
g559
sg76
(lp571
S':'
asbag69
(g90
g71
NtRp572
(dp573
g74
(dp574
sg83
g559
sg76
(lp575
g69
(g70
g71
NtRp576
(dp577
g74
(dp578
g82
I4
ssg83
g572
sg76
(lp579
S'set([])'
p580
asbasbasbag69
(g85
g71
NtRp581
(dp582
g74
(dp583
sg83
g464
sg76
(lp584
g69
(g90
g71
NtRp585
(dp586
g74
(dp587
g94
g95
ssg83
g581
sg76
(lp588
S'debugging'
p589
asbag69
(g90
g71
NtRp590
(dp591
g74
(dp592
g101
g102
ssg83
g581
sg76
(lp593
S':'
asbag69
(g90
g71
NtRp594
(dp595
g74
(dp596
sg83
g581
sg76
(lp597
g69
(g70
g71
NtRp598
(dp599
g74
(dp600
g82
I4
ssg83
g594
sg76
(lp601
g112
asbasbasbag69
(g85
g71
NtRp602
(dp603
g74
(dp604
sg83
g464
sg76
(lp605
g69
(g90
g71
NtRp606
(dp607
g74
(dp608
g94
g95
ssg83
g602
sg76
(lp609
S'gluon_parent'
p610
asbag69
(g90
g71
NtRp611
(dp612
g74
(dp613
g101
g102
ssg83
g602
sg76
(lp614
S':'
asbag69
(g90
g71
NtRp615
(dp616
g74
(dp617
sg83
g602
sg76
(lp618
g69
(g70
g71
NtRp619
(dp620
g74
(dp621
g82
I4
ssg83
g615
sg76
(lp622
S'/home/marco/projects/final/web2py'
p623
asbasbasbag69
(g85
g71
NtRp624
(dp625
g74
(dp626
sg83
g464
sg76
(lp627
g69
(g90
g71
NtRp628
(dp629
g74
(dp630
g94
g95
ssg83
g624
sg76
(lp631
S'http_accept'
p632
asbag69
(g90
g71
NtRp633
(dp634
g74
(dp635
g101
g102
ssg83
g624
sg76
(lp636
S':'
asbag69
(g90
g71
NtRp637
(dp638
g74
(dp639
sg83
g624
sg76
(lp640
g69
(g70
g71
NtRp641
(dp642
g74
(dp643
g82
I4
ssg83
g637
sg76
(lp644
S'text/html,application/xhtml+xml,application/xml;q=0.9,*/*;q=0.8'
p645
asbasbasbag69
(g85
g71
NtRp646
(dp647
g74
(dp648
sg83
g464
sg76
(lp649
g69
(g90
g71
NtRp650
(dp651
g74
(dp652
g94
g95
ssg83
g646
sg76
(lp653
S'http_accept_encoding'
p654
asbag69
(g90
g71
NtRp655
(dp656
g74
(dp657
g101
g102
ssg83
g646
sg76
(lp658
S':'
asbag69
(g90
g71
NtRp659
(dp660
g74
(dp661
sg83
g646
sg76
(lp662
g69
(g70
g71
NtRp663
(dp664
g74
(dp665
g82
I4
ssg83
g659
sg76
(lp666
S'gzip, deflate'
p667
asbasbasbag69
(g85
g71
NtRp668
(dp669
g74
(dp670
sg83
g464
sg76
(lp671
g69
(g90
g71
NtRp672
(dp673
g74
(dp674
g94
g95
ssg83
g668
sg76
(lp675
S'http_accept_language'
p676
asbag69
(g90
g71
NtRp677
(dp678
g74
(dp679
g101
g102
ssg83
g668
sg76
(lp680
S':'
asbag69
(g90
g71
NtRp681
(dp682
g74
(dp683
sg83
g668
sg76
(lp684
g69
(g70
g71
NtRp685
(dp686
g74
(dp687
g82
I4
ssg83
g681
sg76
(lp688
S'es-ar,es;q=0.8,en-us;q=0.5,en;q=0.3'
p689
asbasbasbag69
(g85
g71
NtRp690
(dp691
g74
(dp692
sg83
g464
sg76
(lp693
g69
(g90
g71
NtRp694
(dp695
g74
(dp696
g94
g95
ssg83
g690
sg76
(lp697
S'http_cache_control'
p698
asbag69
(g90
g71
NtRp699
(dp700
g74
(dp701
g101
g102
ssg83
g690
sg76
(lp702
S':'
asbag69
(g90
g71
NtRp703
(dp704
g74
(dp705
sg83
g690
sg76
(lp706
g69
(g70
g71
NtRp707
(dp708
g74
(dp709
g82
I4
ssg83
g703
sg76
(lp710
S'max-age=0'
p711
asbasbasbag69
(g85
g71
NtRp712
(dp713
g74
(dp714
sg83
g464
sg76
(lp715
g69
(g90
g71
NtRp716
(dp717
g74
(dp718
g94
g95
ssg83
g712
sg76
(lp719
S'http_connection'
p720
asbag69
(g90
g71
NtRp721
(dp722
g74
(dp723
g101
g102
ssg83
g712
sg76
(lp724
S':'
asbag69
(g90
g71
NtRp725
(dp726
g74
(dp727
sg83
g712
sg76
(lp728
g69
(g70
g71
NtRp729
(dp730
g74
(dp731
g82
I4
ssg83
g725
sg76
(lp732
S'keep-alive'
p733
asbasbasbag69
(g85
g71
NtRp734
(dp735
g74
(dp736
sg83
g464
sg76
(lp737
g69
(g90
g71
NtRp738
(dp739
g74
(dp740
g94
g95
ssg83
g734
sg76
(lp741
S'http_cookie'
p742
asbag69
(g90
g71
NtRp743
(dp744
g74
(dp745
g101
g102
ssg83
g734
sg76
(lp746
S':'
asbag69
(g90
g71
NtRp747
(dp748
g74
(dp749
sg83
g734
sg76
(lp750
g69
(g70
g71
NtRp751
(dp752
g74
(dp753
g82
I4
ssg83
g747
sg76
(lp754
S'__utma=96992031.1881515701.1331265087.1331778935.1331861747.16; __utmz=96992031.1331265087.1.1.utmcsr=(direct)|utmccn=(direct)|utmcmd=(none); session_id_woppi=127.0.0.1-c3211532-bac3-4d01-a827-5a817a138778'
p755
asbasbasbag69
(g85
g71
NtRp756
(dp757
g74
(dp758
sg83
g464
sg76
(lp759
g69
(g90
g71
NtRp760
(dp761
g74
(dp762
g94
g95
ssg83
g756
sg76
(lp763
S'http_host'
p764
asbag69
(g90
g71
NtRp765
(dp766
g74
(dp767
g101
g102
ssg83
g756
sg76
(lp768
S':'
asbag69
(g90
g71
NtRp769
(dp770
g74
(dp771
sg83
g756
sg76
(lp772
g69
(g70
g71
NtRp773
(dp774
g74
(dp775
g82
I4
ssg83
g769
sg76
(lp776
S'127.0.0.1:8000'
p777
asbasbasbag69
(g85
g71
NtRp778
(dp779
g74
(dp780
sg83
g464
sg76
(lp781
g69
(g90
g71
NtRp782
(dp783
g74
(dp784
g94
g95
ssg83
g778
sg76
(lp785
S'http_referer'
p786
asbag69
(g90
g71
NtRp787
(dp788
g74
(dp789
g101
g102
ssg83
g778
sg76
(lp790
S':'
asbag69
(g90
g71
NtRp791
(dp792
g74
(dp793
sg83
g778
sg76
(lp794
g69
(g70
g71
NtRp795
(dp796
g74
(dp797
g82
I4
ssg83
g791
sg76
(lp798
S'http://127.0.0.1:8000/woppi/interno/especialidades'
p799
asbasbasbag69
(g85
g71
NtRp800
(dp801
g74
(dp802
sg83
g464
sg76
(lp803
g69
(g90
g71
NtRp804
(dp805
g74
(dp806
g94
g95
ssg83
g800
sg76
(lp807
S'http_user_agent'
p808
asbag69
(g90
g71
NtRp809
(dp810
g74
(dp811
g101
g102
ssg83
g800
sg76
(lp812
S':'
asbag69
(g90
g71
NtRp813
(dp814
g74
(dp815
sg83
g800
sg76
(lp816
g69
(g70
g71
NtRp817
(dp818
g74
(dp819
g82
I4
ssg83
g813
sg76
(lp820
S'Mozilla/5.0 (X11; Linux x86_64; rv:11.0) Gecko/20100101 Firefox/11.0 Iceweasel/11.0'
p821
asbasbasbag69
(g85
g71
NtRp822
(dp823
g74
(dp824
sg83
g464
sg76
(lp825
g69
(g90
g71
NtRp826
(dp827
g74
(dp828
g94
g95
ssg83
g822
sg76
(lp829
S'is_jython'
p830
asbag69
(g90
g71
NtRp831
(dp832
g74
(dp833
g101
g102
ssg83
g822
sg76
(lp834
S':'
asbag69
(g90
g71
NtRp835
(dp836
g74
(dp837
sg83
g822
sg76
(lp838
g69
(g70
g71
NtRp839
(dp840
g74
(dp841
g82
I4
ssg83
g835
sg76
(lp842
g112
asbasbasbag69
(g85
g71
NtRp843
(dp844
g74
(dp845
sg83
g464
sg76
(lp846
g69
(g90
g71
NtRp847
(dp848
g74
(dp849
g94
g95
ssg83
g843
sg76
(lp850
S'is_pypy'
p851
asbag69
(g90
g71
NtRp852
(dp853
g74
(dp854
g101
g102
ssg83
g843
sg76
(lp855
S':'
asbag69
(g90
g71
NtRp856
(dp857
g74
(dp858
sg83
g843
sg76
(lp859
g69
(g70
g71
NtRp860
(dp861
g74
(dp862
g82
I4
ssg83
g856
sg76
(lp863
g112
asbasbasbag69
(g85
g71
NtRp864
(dp865
g74
(dp866
sg83
g464
sg76
(lp867
g69
(g90
g71
NtRp868
(dp869
g74
(dp870
g94
g95
ssg83
g864
sg76
(lp871
S'path_info'
p872
asbag69
(g90
g71
NtRp873
(dp874
g74
(dp875
g101
g102
ssg83
g864
sg76
(lp876
S':'
asbag69
(g90
g71
NtRp877
(dp878
g74
(dp879
sg83
g864
sg76
(lp880
g69
(g70
g71
NtRp881
(dp882
g74
(dp883
g82
I4
ssg83
g877
sg76
(lp884
S'/woppi/interno/index'
p885
asbasbasbag69
(g85
g71
NtRp886
(dp887
g74
(dp888
sg83
g464
sg76
(lp889
g69
(g90
g71
NtRp890
(dp891
g74
(dp892
g94
g95
ssg83
g886
sg76
(lp893
S'query_string'
p894
asbag69
(g90
g71
NtRp895
(dp896
g74
(dp897
g101
g102
ssg83
g886
sg76
(lp898
S':'
asbag69
(g90
g71
NtRp899
(dp900
g74
(dp901
sg83
g886
sg76
(lp902
g69
(g70
g71
NtRp903
(dp904
g74
(dp905
g82
I4
ssg83
g899
sg76
(lp906
S''
asbasbasbag69
(g85
g71
NtRp907
(dp908
g74
(dp909
sg83
g464
sg76
(lp910
g69
(g90
g71
NtRp911
(dp912
g74
(dp913
g94
g95
ssg83
g907
sg76
(lp914
S'remote_addr'
p915
asbag69
(g90
g71
NtRp916
(dp917
g74
(dp918
g101
g102
ssg83
g907
sg76
(lp919
S':'
asbag69
(g90
g71
NtRp920
(dp921
g74
(dp922
sg83
g907
sg76
(lp923
g69
(g70
g71
NtRp924
(dp925
g74
(dp926
g82
I4
ssg83
g920
sg76
(lp927
g202
asbasbasbag69
(g85
g71
NtRp928
(dp929
g74
(dp930
sg83
g464
sg76
(lp931
g69
(g90
g71
NtRp932
(dp933
g74
(dp934
g94
g95
ssg83
g928
sg76
(lp935
S'remote_port'
p936
asbag69
(g90
g71
NtRp937
(dp938
g74
(dp939
g101
g102
ssg83
g928
sg76
(lp940
S':'
asbag69
(g90
g71
NtRp941
(dp942
g74
(dp943
sg83
g928
sg76
(lp944
g69
(g70
g71
NtRp945
(dp946
g74
(dp947
g82
I4
ssg83
g941
sg76
(lp948
S'38617'
p949
asbasbasbag69
(g85
g71
NtRp950
(dp951
g74
(dp952
sg83
g464
sg76
(lp953
g69
(g90
g71
NtRp954
(dp955
g74
(dp956
g94
g95
ssg83
g950
sg76
(lp957
S'request_method'
p958
asbag69
(g90
g71
NtRp959
(dp960
g74
(dp961
g101
g102
ssg83
g950
sg76
(lp962
S':'
asbag69
(g90
g71
NtRp963
(dp964
g74
(dp965
sg83
g950
sg76
(lp966
g69
(g70
g71
NtRp967
(dp968
g74
(dp969
g82
I4
ssg83
g963
sg76
(lp970
S'GET'
p971
asbasbasbag69
(g85
g71
NtRp972
(dp973
g74
(dp974
sg83
g464
sg76
(lp975
g69
(g90
g71
NtRp976
(dp977
g74
(dp978
g94
g95
ssg83
g972
sg76
(lp979
S'script_name'
p980
asbag69
(g90
g71
NtRp981
(dp982
g74
(dp983
g101
g102
ssg83
g972
sg76
(lp984
S':'
asbag69
(g90
g71
NtRp985
(dp986
g74
(dp987
sg83
g972
sg76
(lp988
g69
(g70
g71
NtRp989
(dp990
g74
(dp991
g82
I4
ssg83
g985
sg76
(lp992
S''
asbasbasbag69
(g85
g71
NtRp993
(dp994
g74
(dp995
sg83
g464
sg76
(lp996
g69
(g90
g71
NtRp997
(dp998
g74
(dp999
g94
g95
ssg83
g993
sg76
(lp1000
S'server_name'
p1001
asbag69
(g90
g71
NtRp1002
(dp1003
g74
(dp1004
g101
g102
ssg83
g993
sg76
(lp1005
S':'
asbag69
(g90
g71
NtRp1006
(dp1007
g74
(dp1008
sg83
g993
sg76
(lp1009
g69
(g70
g71
NtRp1010
(dp1011
g74
(dp1012
g82
I4
ssg83
g1006
sg76
(lp1013
S'malena'
p1014
asbasbasbag69
(g85
g71
NtRp1015
(dp1016
g74
(dp1017
sg83
g464
sg76
(lp1018
g69
(g90
g71
NtRp1019
(dp1020
g74
(dp1021
g94
g95
ssg83
g1015
sg76
(lp1022
S'server_port'
p1023
asbag69
(g90
g71
NtRp1024
(dp1025
g74
(dp1026
g101
g102
ssg83
g1015
sg76
(lp1027
S':'
asbag69
(g90
g71
NtRp1028
(dp1029
g74
(dp1030
sg83
g1015
sg76
(lp1031
g69
(g70
g71
NtRp1032
(dp1033
g74
(dp1034
g82
I4
ssg83
g1028
sg76
(lp1035
S'8000'
p1036
asbasbasbag69
(g85
g71
NtRp1037
(dp1038
g74
(dp1039
sg83
g464
sg76
(lp1040
g69
(g90
g71
NtRp1041
(dp1042
g74
(dp1043
g94
g95
ssg83
g1037
sg76
(lp1044
S'server_protocol'
p1045
asbag69
(g90
g71
NtRp1046
(dp1047
g74
(dp1048
g101
g102
ssg83
g1037
sg76
(lp1049
S':'
asbag69
(g90
g71
NtRp1050
(dp1051
g74
(dp1052
sg83
g1037
sg76
(lp1053
g69
(g70
g71
NtRp1054
(dp1055
g74
(dp1056
g82
I4
ssg83
g1050
sg76
(lp1057
S'HTTP/1.1'
p1058
asbasbasbag69
(g85
g71
NtRp1059
(dp1060
g74
(dp1061
sg83
g464
sg76
(lp1062
g69
(g90
g71
NtRp1063
(dp1064
g74
(dp1065
g94
g95
ssg83
g1059
sg76
(lp1066
S'server_software'
p1067
asbag69
(g90
g71
NtRp1068
(dp1069
g74
(dp1070
g101
g102
ssg83
g1059
sg76
(lp1071
S':'
asbag69
(g90
g71
NtRp1072
(dp1073
g74
(dp1074
sg83
g1059
sg76
(lp1075
g69
(g70
g71
NtRp1076
(dp1077
g74
(dp1078
g82
I4
ssg83
g1072
sg76
(lp1079
S'Rocket 1.2.4'
p1080
asbasbasbag69
(g85
g71
NtRp1081
(dp1082
g74
(dp1083
sg83
g464
sg76
(lp1084
g69
(g90
g71
NtRp1085
(dp1086
g74
(dp1087
g94
g95
ssg83
g1081
sg76
(lp1088
S'web2py_crontype'
p1089
asbag69
(g90
g71
NtRp1090
(dp1091
g74
(dp1092
g101
g102
ssg83
g1081
sg76
(lp1093
S':'
asbag69
(g90
g71
NtRp1094
(dp1095
g74
(dp1096
sg83
g1081
sg76
(lp1097
g69
(g70
g71
NtRp1098
(dp1099
g74
(dp1100
g82
I4
ssg83
g1094
sg76
(lp1101
S'hard'
p1102
asbasbasbag69
(g85
g71
NtRp1103
(dp1104
g74
(dp1105
sg83
g464
sg76
(lp1106
g69
(g90
g71
NtRp1107
(dp1108
g74
(dp1109
g94
g95
ssg83
g1103
sg76
(lp1110
S'web2py_path'
p1111
asbag69
(g90
g71
NtRp1112
(dp1113
g74
(dp1114
g101
g102
ssg83
g1103
sg76
(lp1115
S':'
asbag69
(g90
g71
NtRp1116
(dp1117
g74
(dp1118
sg83
g1103
sg76
(lp1119
g69
(g70
g71
NtRp1120
(dp1121
g74
(dp1122
g82
I4
ssg83
g1116
sg76
(lp1123
g511
asbasbasbag69
(g85
g71
NtRp1124
(dp1125
g74
(dp1126
sg83
g464
sg76
(lp1127
g69
(g90
g71
NtRp1128
(dp1129
g74
(dp1130
g94
g95
ssg83
g1124
sg76
(lp1131
S'web2py_version'
p1132
asbag69
(g90
g71
NtRp1133
(dp1134
g74
(dp1135
g101
g102
ssg83
g1124
sg76
(lp1136
S':'
asbag69
(g90
g71
NtRp1137
(dp1138
g74
(dp1139
sg83
g1124
sg76
(lp1140
g69
(g70
g71
NtRp1141
(dp1142
g74
(dp1143
g82
I4
ssg83
g1137
sg76
(lp1144
g69
(g78
g71
NtRp1145
(dp1146
g74
(dp1147
g82
I3
ssg83
Nsg76
(lp1148
g69
(g85
g71
NtRp1149
(dp1150
g74
(dp1151
sg83
g1145
sg76
(lp1152
g69
(g90
g71
NtRp1153
(dp1154
g74
(dp1155
sg83
g1149
sg76
(lp1156
g69
(g70
g71
NtRp1157
(dp1158
g74
(dp1159
g82
I3
ssg83
g1153
sg76
(lp1160
S'1'
asbasbasbag69
(g85
g71
NtRp1161
(dp1162
g74
(dp1163
sg83
g1145
sg76
(lp1164
g69
(g90
g71
NtRp1165
(dp1166
g74
(dp1167
sg83
g1161
sg76
(lp1168
g69
(g70
g71
NtRp1169
(dp1170
g74
(dp1171
g82
I3
ssg83
g1165
sg76
(lp1172
S'99'
p1173
asbasbasbag69
(g85
g71
NtRp1174
(dp1175
g74
(dp1176
sg83
g1145
sg76
(lp1177
g69
(g90
g71
NtRp1178
(dp1179
g74
(dp1180
sg83
g1174
sg76
(lp1181
g69
(g70
g71
NtRp1182
(dp1183
g74
(dp1184
g82
I3
ssg83
g1178
sg76
(lp1185
S'7'
asbasbasbag69
(g85
g71
NtRp1186
(dp1187
g74
(dp1188
sg83
g1145
sg76
(lp1189
g69
(g90
g71
NtRp1190
(dp1191
g74
(dp1192
sg83
g1186
sg76
(lp1193
g69
(g70
g71
NtRp1194
(dp1195
g74
(dp1196
g82
I3
ssg83
g1190
sg76
(lp1197
S'datetime.datetime(2012, 3, 4, 22, 12, 8)'
p1198
asbasbasbag69
(g85
g71
NtRp1199
(dp1200
g74
(dp1201
sg83
g1145
sg76
(lp1202
g69
(g90
g71
NtRp1203
(dp1204
g74
(dp1205
sg83
g1199
sg76
(lp1206
g69
(g70
g71
NtRp1207
(dp1208
g74
(dp1209
g82
I3
ssg83
g1203
sg76
(lp1210
S'stable'
p1211
asbasbasbasbasbasbasbag69
(g85
g71
NtRp1212
(dp1213
g74
(dp1214
sg83
g464
sg76
(lp1215
g69
(g90
g71
NtRp1216
(dp1217
g74
(dp1218
g94
g95
ssg83
g1212
sg76
(lp1219
S'wsgi_errors'
p1220
asbag69
(g90
g71
NtRp1221
(dp1222
g74
(dp1223
g101
g102
ssg83
g1212
sg76
(lp1224
S':'
asbag69
(g90
g71
NtRp1225
(dp1226
g74
(dp1227
sg83
g1212
sg76
(lp1228
g69
(g70
g71
NtRp1229
(dp1230
g74
(dp1231
g82
I4
ssg83
g1225
sg76
(lp1232
S"<open file '<stderr>', mode 'w' at 0x7fa5ed7d0270>"
p1233
asbasbasbag69
(g85
g71
NtRp1234
(dp1235
g74
(dp1236
sg83
g464
sg76
(lp1237
g69
(g90
g71
NtRp1238
(dp1239
g74
(dp1240
g94
g95
ssg83
g1234
sg76
(lp1241
S'wsgi_file_wrapper'
p1242
asbag69
(g90
g71
NtRp1243
(dp1244
g74
(dp1245
g101
g102
ssg83
g1234
sg76
(lp1246
S':'
asbag69
(g90
g71
NtRp1247
(dp1248
g74
(dp1249
sg83
g1234
sg76
(lp1250
g69
(g70
g71
NtRp1251
(dp1252
g74
(dp1253
g82
I4
ssg83
g1247
sg76
(lp1254
S'<class wsgiref.util.FileWrapper at 0x16b20b8>'
p1255
asbasbasbag69
(g85
g71
NtRp1256
(dp1257
g74
(dp1258
sg83
g464
sg76
(lp1259
g69
(g90
g71
NtRp1260
(dp1261
g74
(dp1262
g94
g95
ssg83
g1256
sg76
(lp1263
S'wsgi_input'
p1264
asbag69
(g90
g71
NtRp1265
(dp1266
g74
(dp1267
g101
g102
ssg83
g1256
sg76
(lp1268
S':'
asbag69
(g90
g71
NtRp1269
(dp1270
g74
(dp1271
sg83
g1256
sg76
(lp1272
g69
(g70
g71
NtRp1273
(dp1274
g74
(dp1275
g82
I4
ssg83
g1269
sg76
(lp1276
S'<socket._fileobject object at 0x19a07d0>'
p1277
asbasbasbag69
(g85
g71
NtRp1278
(dp1279
g74
(dp1280
sg83
g464
sg76
(lp1281
g69
(g90
g71
NtRp1282
(dp1283
g74
(dp1284
g94
g95
ssg83
g1278
sg76
(lp1285
S'wsgi_multiprocess'
p1286
asbag69
(g90
g71
NtRp1287
(dp1288
g74
(dp1289
g101
g102
ssg83
g1278
sg76
(lp1290
S':'
asbag69
(g90
g71
NtRp1291
(dp1292
g74
(dp1293
sg83
g1278
sg76
(lp1294
g69
(g70
g71
NtRp1295
(dp1296
g74
(dp1297
g82
I4
ssg83
g1291
sg76
(lp1298
g112
asbasbasbag69
(g85
g71
NtRp1299
(dp1300
g74
(dp1301
sg83
g464
sg76
(lp1302
g69
(g90
g71
NtRp1303
(dp1304
g74
(dp1305
g94
g95
ssg83
g1299
sg76
(lp1306
S'wsgi_multithread'
p1307
asbag69
(g90
g71
NtRp1308
(dp1309
g74
(dp1310
g101
g102
ssg83
g1299
sg76
(lp1311
S':'
asbag69
(g90
g71
NtRp1312
(dp1313
g74
(dp1314
sg83
g1299
sg76
(lp1315
g69
(g70
g71
NtRp1316
(dp1317
g74
(dp1318
g82
I4
ssg83
g1312
sg76
(lp1319
S'True'
p1320
asbasbasbag69
(g85
g71
NtRp1321
(dp1322
g74
(dp1323
sg83
g464
sg76
(lp1324
g69
(g90
g71
NtRp1325
(dp1326
g74
(dp1327
g94
g95
ssg83
g1321
sg76
(lp1328
S'wsgi_run_once'
p1329
asbag69
(g90
g71
NtRp1330
(dp1331
g74
(dp1332
g101
g102
ssg83
g1321
sg76
(lp1333
S':'
asbag69
(g90
g71
NtRp1334
(dp1335
g74
(dp1336
sg83
g1321
sg76
(lp1337
g69
(g70
g71
NtRp1338
(dp1339
g74
(dp1340
g82
I4
ssg83
g1334
sg76
(lp1341
g112
asbasbasbag69
(g85
g71
NtRp1342
(dp1343
g74
(dp1344
sg83
g464
sg76
(lp1345
g69
(g90
g71
NtRp1346
(dp1347
g74
(dp1348
g94
g95
ssg83
g1342
sg76
(lp1349
S'wsgi_url_scheme'
p1350
asbag69
(g90
g71
NtRp1351
(dp1352
g74
(dp1353
g101
g102
ssg83
g1342
sg76
(lp1354
S':'
asbag69
(g90
g71
NtRp1355
(dp1356
g74
(dp1357
sg83
g1342
sg76
(lp1358
g69
(g70
g71
NtRp1359
(dp1360
g74
(dp1361
g82
I4
ssg83
g1355
sg76
(lp1362
S'http'
p1363
asbasbasbag69
(g85
g71
NtRp1364
(dp1365
g74
(dp1366
sg83
g464
sg76
(lp1367
g69
(g90
g71
NtRp1368
(dp1369
g74
(dp1370
g94
g95
ssg83
g1364
sg76
(lp1371
S'wsgi_version'
p1372
asbag69
(g90
g71
NtRp1373
(dp1374
g74
(dp1375
g101
g102
ssg83
g1364
sg76
(lp1376
S':'
asbag69
(g90
g71
NtRp1377
(dp1378
g74
(dp1379
sg83
g1364
sg76
(lp1380
g69
(g70
g71
NtRp1381
(dp1382
g74
(dp1383
g82
I4
ssg83
g1377
sg76
(lp1384
g69
(g78
g71
NtRp1385
(dp1386
g74
(dp1387
g82
I3
ssg83
Nsg76
(lp1388
g69
(g85
g71
NtRp1389
(dp1390
g74
(dp1391
sg83
g1385
sg76
(lp1392
g69
(g90
g71
NtRp1393
(dp1394
g74
(dp1395
sg83
g1389
sg76
(lp1396
g69
(g70
g71
NtRp1397
(dp1398
g74
(dp1399
g82
I3
ssg83
g1393
sg76
(lp1400
S'1'
asbasbasbag69
(g85
g71
NtRp1401
(dp1402
g74
(dp1403
sg83
g1385
sg76
(lp1404
g69
(g90
g71
NtRp1405
(dp1406
g74
(dp1407
sg83
g1401
sg76
(lp1408
g69
(g70
g71
NtRp1409
(dp1410
g74
(dp1411
g82
I3
ssg83
g1405
sg76
(lp1412
S'0'
asbasbasbasbasbasbasbasbasbasbasbag69
(g85
g71
NtRp1413
(dp1414
g74
(dp1415
sg83
g79
sg76
(lp1416
g69
(g90
g71
NtRp1417
(dp1418
g74
(dp1419
g94
g95
ssg83
g1413
sg76
(lp1420
S'extension'
p1421
asbag69
(g90
g71
NtRp1422
(dp1423
g74
(dp1424
g101
g102
ssg83
g1413
sg76
(lp1425
S':'
asbag69
(g90
g71
NtRp1426
(dp1427
g74
(dp1428
sg83
g1413
sg76
(lp1429
g69
(g70
g71
NtRp1430
(dp1431
g74
(dp1432
g82
I5
ssg83
g1426
sg76
(lp1433
S'html'
p1434
asbasbasbag69
(g85
g71
NtRp1435
(dp1436
g74
(dp1437
sg83
g79
sg76
(lp1438
g69
(g90
g71
NtRp1439
(dp1440
g74
(dp1441
g94
g95
ssg83
g1435
sg76
(lp1442
S'folder'
p1443
asbag69
(g90
g71
NtRp1444
(dp1445
g74
(dp1446
g101
g102
ssg83
g1435
sg76
(lp1447
S':'
asbag69
(g90
g71
NtRp1448
(dp1449
g74
(dp1450
sg83
g1435
sg76
(lp1451
g69
(g70
g71
NtRp1452
(dp1453
g74
(dp1454
g82
I5
ssg83
g1448
sg76
(lp1455
S'/home/marco/projects/final/web2py/applications/woppi/'
p1456
asbasbasbag69
(g85
g71
NtRp1457
(dp1458
g74
(dp1459
sg83
g79
sg76
(lp1460
g69
(g90
g71
NtRp1461
(dp1462
g74
(dp1463
g94
g95
ssg83
g1457
sg76
(lp1464
S'function'
p1465
asbag69
(g90
g71
NtRp1466
(dp1467
g74
(dp1468
g101
g102
ssg83
g1457
sg76
(lp1469
S':'
asbag69
(g90
g71
NtRp1470
(dp1471
g74
(dp1472
sg83
g1457
sg76
(lp1473
g69
(g70
g71
NtRp1474
(dp1475
g74
(dp1476
g82
I5
ssg83
g1470
sg76
(lp1477
S'index'
p1478
asbasbasbag69
(g85
g71
NtRp1479
(dp1480
g74
(dp1481
sg83
g79
sg76
(lp1482
g69
(g90
g71
NtRp1483
(dp1484
g74
(dp1485
g94
g95
ssg83
g1479
sg76
(lp1486
S'get_vars'
p1487
asbag69
(g90
g71
NtRp1488
(dp1489
g74
(dp1490
g101
g102
ssg83
g1479
sg76
(lp1491
S':'
asbag69
(g90
g71
NtRp1492
(dp1493
g74
(dp1494
sg83
g1479
sg76
(lp1495
g69
(g70
g71
NtRp1496
(dp1497
g74
(dp1498
g82
I5
ssg83
g1492
sg76
(lp1499
g69
(g78
g71
NtRp1500
(dp1501
g74
(dp1502
g82
I4
ssg83
Nsg76
(lp1503
sbasbasbasbag69
(g85
g71
NtRp1504
(dp1505
g74
(dp1506
sg83
g79
sg76
(lp1507
g69
(g90
g71
NtRp1508
(dp1509
g74
(dp1510
g94
g95
ssg83
g1504
sg76
(lp1511
S'global_settings'
p1512
asbag69
(g90
g71
NtRp1513
(dp1514
g74
(dp1515
g101
g102
ssg83
g1504
sg76
(lp1516
S':'
asbag69
(g90
g71
NtRp1517
(dp1518
g74
(dp1519
sg83
g1504
sg76
(lp1520
g69
(g70
g71
NtRp1521
(dp1522
g74
(dp1523
g82
I5
ssg83
g1517
sg76
(lp1524
g69
(g78
g71
NtRp1525
(dp1526
g74
(dp1527
g82
I4
ssg83
Nsg76
(lp1528
g69
(g85
g71
NtRp1529
(dp1530
g74
(dp1531
sg83
g1525
sg76
(lp1532
g69
(g90
g71
NtRp1533
(dp1534
g74
(dp1535
g94
g95
ssg83
g1529
sg76
(lp1536
g476
asbag69
(g90
g71
NtRp1537
(dp1538
g74
(dp1539
g101
g102
ssg83
g1529
sg76
(lp1540
S':'
asbag69
(g90
g71
NtRp1541
(dp1542
g74
(dp1543
sg83
g1529
sg76
(lp1544
g69
(g70
g71
NtRp1545
(dp1546
g74
(dp1547
g82
I4
ssg83
g1541
sg76
(lp1548
S"set(['/home/marco/projects/final/web2py/applications/woppi/'])"
p1549
asbasbasbag69
(g85
g71
NtRp1550
(dp1551
g74
(dp1552
sg83
g1525
sg76
(lp1553
g69
(g90
g71
NtRp1554
(dp1555
g74
(dp1556
g94
g95
ssg83
g1550
sg76
(lp1557
g498
asbag69
(g90
g71
NtRp1558
(dp1559
g74
(dp1560
g101
g102
ssg83
g1550
sg76
(lp1561
S':'
asbag69
(g90
g71
NtRp1562
(dp1563
g74
(dp1564
sg83
g1550
sg76
(lp1565
g69
(g70
g71
NtRp1566
(dp1567
g74
(dp1568
g82
I4
ssg83
g1562
sg76
(lp1569
g511
asbasbasbag69
(g85
g71
NtRp1570
(dp1571
g74
(dp1572
sg83
g1525
sg76
(lp1573
g69
(g90
g71
NtRp1574
(dp1575
g74
(dp1576
g94
g95
ssg83
g1570
sg76
(lp1577
g520
asbag69
(g90
g71
NtRp1578
(dp1579
g74
(dp1580
g101
g102
ssg83
g1570
sg76
(lp1581
S':'
asbag69
(g90
g71
NtRp1582
(dp1583
g74
(dp1584
sg83
g1570
sg76
(lp1585
g69
(g70
g71
NtRp1586
(dp1587
g74
(dp1588
g82
I4
ssg83
g1582
sg76
(lp1589
g69
(g78
g71
NtRp1590
(dp1591
g74
(dp1592
g82
I3
ssg83
Nsg76
(lp1593
sbasbasbasbag69
(g85
g71
NtRp1594
(dp1595
g74
(dp1596
sg83
g1525
sg76
(lp1597
g69
(g90
g71
NtRp1598
(dp1599
g74
(dp1600
g94
g95
ssg83
g1594
sg76
(lp1601
g545
asbag69
(g90
g71
NtRp1602
(dp1603
g74
(dp1604
g101
g102
ssg83
g1594
sg76
(lp1605
S':'
asbag69
(g90
g71
NtRp1606
(dp1607
g74
(dp1608
sg83
g1594
sg76
(lp1609
g69
(g70
g71
NtRp1610
(dp1611
g74
(dp1612
g82
I4
ssg83
g1606
sg76
(lp1613
S"<Values at 0x17c2908: {'verbose': False, 'ip': '127.0.0.1', 'shutdown_timeout': 5, 'taskbar': False, 'nocron': False, 'pid_filename': 'httpserver.pid', 'maxthreads': None, 'softcron': False, 'server_name': 'malena', 'bpython': False, 'nogui': False, 'port': 8000, 'extcron': False, 'debuglevel': 30, 'test': None, 'folder': '/home/marco/projects/final/web2py', 'config': '', 'import_models': False, 'winservice': '', 'shell': None, 'run': '', 'log_filename': 'httpserver.log', 'args': [''], 'socket_timeout': 5, 'ssl_ca_certificate': None, 'scheduler': None, 'profiler_filename': None, 'ssl_private_key': '', 'password': 'asd', 'request_queue_size': 5, 'ssl_certificate': '', 'cronjob': False, 'numthreads': None, 'quiet': False, 'interfaces': None, 'minthreads': None, 'timeout': 10, 'plain': False, 'nobanner': False}>"
p1614
asbasbasbag69
(g85
g71
NtRp1615
(dp1616
g74
(dp1617
sg83
g1525
sg76
(lp1618
g69
(g90
g71
NtRp1619
(dp1620
g74
(dp1621
g94
g95
ssg83
g1615
sg76
(lp1622
g567
asbag69
(g90
g71
NtRp1623
(dp1624
g74
(dp1625
g101
g102
ssg83
g1615
sg76
(lp1626
S':'
asbag69
(g90
g71
NtRp1627
(dp1628
g74
(dp1629
sg83
g1615
sg76
(lp1630
g69
(g70
g71
NtRp1631
(dp1632
g74
(dp1633
g82
I4
ssg83
g1627
sg76
(lp1634
S'set([])'
p1635
asbasbasbag69
(g85
g71
NtRp1636
(dp1637
g74
(dp1638
sg83
g1525
sg76
(lp1639
g69
(g90
g71
NtRp1640
(dp1641
g74
(dp1642
g94
g95
ssg83
g1636
sg76
(lp1643
g589
asbag69
(g90
g71
NtRp1644
(dp1645
g74
(dp1646
g101
g102
ssg83
g1636
sg76
(lp1647
S':'
asbag69
(g90
g71
NtRp1648
(dp1649
g74
(dp1650
sg83
g1636
sg76
(lp1651
g69
(g70
g71
NtRp1652
(dp1653
g74
(dp1654
g82
I4
ssg83
g1648
sg76
(lp1655
g112
asbasbasbag69
(g85
g71
NtRp1656
(dp1657
g74
(dp1658
sg83
g1525
sg76
(lp1659
g69
(g90
g71
NtRp1660
(dp1661
g74
(dp1662
g94
g95
ssg83
g1656
sg76
(lp1663
g610
asbag69
(g90
g71
NtRp1664
(dp1665
g74
(dp1666
g101
g102
ssg83
g1656
sg76
(lp1667
S':'
asbag69
(g90
g71
NtRp1668
(dp1669
g74
(dp1670
sg83
g1656
sg76
(lp1671
g69
(g70
g71
NtRp1672
(dp1673
g74
(dp1674
g82
I4
ssg83
g1668
sg76
(lp1675
g623
asbasbasbag69
(g85
g71
NtRp1676
(dp1677
g74
(dp1678
sg83
g1525
sg76
(lp1679
g69
(g90
g71
NtRp1680
(dp1681
g74
(dp1682
g94
g95
ssg83
g1676
sg76
(lp1683
g830
asbag69
(g90
g71
NtRp1684
(dp1685
g74
(dp1686
g101
g102
ssg83
g1676
sg76
(lp1687
S':'
asbag69
(g90
g71
NtRp1688
(dp1689
g74
(dp1690
sg83
g1676
sg76
(lp1691
g69
(g70
g71
NtRp1692
(dp1693
g74
(dp1694
g82
I4
ssg83
g1688
sg76
(lp1695
g112
asbasbasbag69
(g85
g71
NtRp1696
(dp1697
g74
(dp1698
sg83
g1525
sg76
(lp1699
g69
(g90
g71
NtRp1700
(dp1701
g74
(dp1702
g94
g95
ssg83
g1696
sg76
(lp1703
g851
asbag69
(g90
g71
NtRp1704
(dp1705
g74
(dp1706
g101
g102
ssg83
g1696
sg76
(lp1707
S':'
asbag69
(g90
g71
NtRp1708
(dp1709
g74
(dp1710
sg83
g1696
sg76
(lp1711
g69
(g70
g71
NtRp1712
(dp1713
g74
(dp1714
g82
I4
ssg83
g1708
sg76
(lp1715
g112
asbasbasbag69
(g85
g71
NtRp1716
(dp1717
g74
(dp1718
sg83
g1525
sg76
(lp1719
g69
(g90
g71
NtRp1720
(dp1721
g74
(dp1722
g94
g95
ssg83
g1716
sg76
(lp1723
g1089
asbag69
(g90
g71
NtRp1724
(dp1725
g74
(dp1726
g101
g102
ssg83
g1716
sg76
(lp1727
S':'
asbag69
(g90
g71
NtRp1728
(dp1729
g74
(dp1730
sg83
g1716
sg76
(lp1731
g69
(g70
g71
NtRp1732
(dp1733
g74
(dp1734
g82
I4
ssg83
g1728
sg76
(lp1735
g1102
asbasbasbag69
(g85
g71
NtRp1736
(dp1737
g74
(dp1738
sg83
g1525
sg76
(lp1739
g69
(g90
g71
NtRp1740
(dp1741
g74
(dp1742
g94
g95
ssg83
g1736
sg76
(lp1743
g1132
asbag69
(g90
g71
NtRp1744
(dp1745
g74
(dp1746
g101
g102
ssg83
g1736
sg76
(lp1747
S':'
asbag69
(g90
g71
NtRp1748
(dp1749
g74
(dp1750
sg83
g1736
sg76
(lp1751
g69
(g70
g71
NtRp1752
(dp1753
g74
(dp1754
g82
I4
ssg83
g1748
sg76
(lp1755
g69
(g78
g71
NtRp1756
(dp1757
g74
(dp1758
g82
I3
ssg83
Nsg76
(lp1759
g69
(g85
g71
NtRp1760
(dp1761
g74
(dp1762
sg83
g1756
sg76
(lp1763
g69
(g90
g71
NtRp1764
(dp1765
g74
(dp1766
sg83
g1760
sg76
(lp1767
g69
(g70
g71
NtRp1768
(dp1769
g74
(dp1770
g82
I3
ssg83
g1764
sg76
(lp1771
S'1'
asbasbasbag69
(g85
g71
NtRp1772
(dp1773
g74
(dp1774
sg83
g1756
sg76
(lp1775
g69
(g90
g71
NtRp1776
(dp1777
g74
(dp1778
sg83
g1772
sg76
(lp1779
g69
(g70
g71
NtRp1780
(dp1781
g74
(dp1782
g82
I3
ssg83
g1776
sg76
(lp1783
S'99'
p1784
asbasbasbag69
(g85
g71
NtRp1785
(dp1786
g74
(dp1787
sg83
g1756
sg76
(lp1788
g69
(g90
g71
NtRp1789
(dp1790
g74
(dp1791
sg83
g1785
sg76
(lp1792
g69
(g70
g71
NtRp1793
(dp1794
g74
(dp1795
g82
I3
ssg83
g1789
sg76
(lp1796
S'7'
asbasbasbag69
(g85
g71
NtRp1797
(dp1798
g74
(dp1799
sg83
g1756
sg76
(lp1800
g69
(g90
g71
NtRp1801
(dp1802
g74
(dp1803
sg83
g1797
sg76
(lp1804
g69
(g70
g71
NtRp1805
(dp1806
g74
(dp1807
g82
I3
ssg83
g1801
sg76
(lp1808
S'datetime.datetime(2012, 3, 4, 22, 12, 8)'
p1809
asbasbasbag69
(g85
g71
NtRp1810
(dp1811
g74
(dp1812
sg83
g1756
sg76
(lp1813
g69
(g90
g71
NtRp1814
(dp1815
g74
(dp1816
sg83
g1810
sg76
(lp1817
g69
(g70
g71
NtRp1818
(dp1819
g74
(dp1820
g82
I3
ssg83
g1814
sg76
(lp1821
g1211
asbasbasbasbasbasbasbasbasbasbasbag69
(g85
g71
NtRp1822
(dp1823
g74
(dp1824
sg83
g79
sg76
(lp1825
g69
(g90
g71
NtRp1826
(dp1827
g74
(dp1828
g94
g95
ssg83
g1822
sg76
(lp1829
S'is_https'
p1830
asbag69
(g90
g71
NtRp1831
(dp1832
g74
(dp1833
g101
g102
ssg83
g1822
sg76
(lp1834
S':'
asbag69
(g90
g71
NtRp1835
(dp1836
g74
(dp1837
sg83
g1822
sg76
(lp1838
g69
(g70
g71
NtRp1839
(dp1840
g74
(dp1841
g82
I5
ssg83
g1835
sg76
(lp1842
g112
asbasbasbag69
(g85
g71
NtRp1843
(dp1844
g74
(dp1845
sg83
g79
sg76
(lp1846
g69
(g90
g71
NtRp1847
(dp1848
g74
(dp1849
g94
g95
ssg83
g1843
sg76
(lp1850
S'is_local'
p1851
asbag69
(g90
g71
NtRp1852
(dp1853
g74
(dp1854
g101
g102
ssg83
g1843
sg76
(lp1855
S':'
asbag69
(g90
g71
NtRp1856
(dp1857
g74
(dp1858
sg83
g1843
sg76
(lp1859
g69
(g70
g71
NtRp1860
(dp1861
g74
(dp1862
g82
I5
ssg83
g1856
sg76
(lp1863
g1320
asbasbasbag69
(g85
g71
NtRp1864
(dp1865
g74
(dp1866
sg83
g79
sg76
(lp1867
g69
(g90
g71
NtRp1868
(dp1869
g74
(dp1870
g94
g95
ssg83
g1864
sg76
(lp1871
S'is_restful'
p1872
asbag69
(g90
g71
NtRp1873
(dp1874
g74
(dp1875
g101
g102
ssg83
g1864
sg76
(lp1876
S':'
asbag69
(g90
g71
NtRp1877
(dp1878
g74
(dp1879
sg83
g1864
sg76
(lp1880
g69
(g70
g71
NtRp1881
(dp1882
g74
(dp1883
g82
I5
ssg83
g1877
sg76
(lp1884
g112
asbasbasbag69
(g85
g71
NtRp1885
(dp1886
g74
(dp1887
sg83
g79
sg76
(lp1888
g69
(g90
g71
NtRp1889
(dp1890
g74
(dp1891
g94
g95
ssg83
g1885
sg76
(lp1892
S'now'
p1893
asbag69
(g90
g71
NtRp1894
(dp1895
g74
(dp1896
g101
g102
ssg83
g1885
sg76
(lp1897
S':'
asbag69
(g90
g71
NtRp1898
(dp1899
g74
(dp1900
sg83
g1885
sg76
(lp1901
g69
(g70
g71
NtRp1902
(dp1903
g74
(dp1904
g82
I5
ssg83
g1898
sg76
(lp1905
S'datetime.datetime(2012, 4, 12, 1, 4, 32, 401282)'
p1906
asbasbasbag69
(g85
g71
NtRp1907
(dp1908
g74
(dp1909
sg83
g79
sg76
(lp1910
g69
(g90
g71
NtRp1911
(dp1912
g74
(dp1913
g94
g95
ssg83
g1907
sg76
(lp1914
S'post_vars'
p1915
asbag69
(g90
g71
NtRp1916
(dp1917
g74
(dp1918
g101
g102
ssg83
g1907
sg76
(lp1919
S':'
asbag69
(g90
g71
NtRp1920
(dp1921
g74
(dp1922
sg83
g1907
sg76
(lp1923
g69
(g70
g71
NtRp1924
(dp1925
g74
(dp1926
g82
I5
ssg83
g1920
sg76
(lp1927
g69
(g78
g71
NtRp1928
(dp1929
g74
(dp1930
g82
I4
ssg83
Nsg76
(lp1931
sbasbasbasbag69
(g85
g71
NtRp1932
(dp1933
g74
(dp1934
sg83
g79
sg76
(lp1935
g69
(g90
g71
NtRp1936
(dp1937
g74
(dp1938
g94
g95
ssg83
g1932
sg76
(lp1939
S'url'
p1940
asbag69
(g90
g71
NtRp1941
(dp1942
g74
(dp1943
g101
g102
ssg83
g1932
sg76
(lp1944
S':'
asbag69
(g90
g71
NtRp1945
(dp1946
g74
(dp1947
sg83
g1932
sg76
(lp1948
g69
(g70
g71
NtRp1949
(dp1950
g74
(dp1951
g82
I5
ssg83
g1945
sg76
(lp1952
S'/woppi/interno/index'
p1953
asbasbasbag69
(g85
g71
NtRp1954
(dp1955
g74
(dp1956
sg83
g79
sg76
(lp1957
g69
(g90
g71
NtRp1958
(dp1959
g74
(dp1960
g94
g95
ssg83
g1954
sg76
(lp1961
S'utcnow'
p1962
asbag69
(g90
g71
NtRp1963
(dp1964
g74
(dp1965
g101
g102
ssg83
g1954
sg76
(lp1966
S':'
asbag69
(g90
g71
NtRp1967
(dp1968
g74
(dp1969
sg83
g1954
sg76
(lp1970
g69
(g70
g71
NtRp1971
(dp1972
g74
(dp1973
g82
I5
ssg83
g1967
sg76
(lp1974
S'datetime.datetime(2012, 4, 12, 4, 4, 32, 401320)'
p1975
asbasbasbag69
(g85
g71
NtRp1976
(dp1977
g74
(dp1978
sg83
g79
sg76
(lp1979
g69
(g90
g71
NtRp1980
(dp1981
g74
(dp1982
g94
g95
ssg83
g1976
sg76
(lp1983
S'uuid'
p1984
asbag69
(g90
g71
NtRp1985
(dp1986
g74
(dp1987
g101
g102
ssg83
g1976
sg76
(lp1988
S':'
asbag69
(g90
g71
NtRp1989
(dp1990
g74
(dp1991
sg83
g1976
sg76
(lp1992
g69
(g70
g71
NtRp1993
(dp1994
g74
(dp1995
g82
I5
ssg83
g1989
sg76
(lp1996
S'woppi/127.0.0.1.2012-04-12.01-04-32.9754bda5-a438-4362-87d9-5b83ab6076ed'
p1997
asbasbasbag69
(g85
g71
NtRp1998
(dp1999
g74
(dp2000
sg83
g79
sg76
(lp2001
g69
(g90
g71
NtRp2002
(dp2003
g74
(dp2004
g94
g95
ssg83
g1998
sg76
(lp2005
S'vars'
p2006
asbag69
(g90
g71
NtRp2007
(dp2008
g74
(dp2009
g101
g102
ssg83
g1998
sg76
(lp2010
S':'
asbag69
(g90
g71
NtRp2011
(dp2012
g74
(dp2013
sg83
g1998
sg76
(lp2014
g69
(g70
g71
NtRp2015
(dp2016
g74
(dp2017
g82
I5
ssg83
g2011
sg76
(lp2018
g69
(g78
g71
NtRp2019
(dp2020
g74
(dp2021
g82
I4
ssg83
Nsg76
(lp2022
sbasbasbasbag69
(g85
g71
NtRp2023
(dp2024
g74
(dp2025
sg83
g79
sg76
(lp2026
g69
(g90
g71
NtRp2027
(dp2028
g74
(dp2029
g94
g95
ssg83
g2023
sg76
(lp2030
S'wsgi'
p2031
asbag69
(g90
g71
NtRp2032
(dp2033
g74
(dp2034
g101
g102
ssg83
g2023
sg76
(lp2035
S':'
asbag69
(g90
g71
NtRp2036
(dp2037
g74
(dp2038
sg83
g2023
sg76
(lp2039
g69
(g70
g71
NtRp2040
(dp2041
g74
(dp2042
g82
I5
ssg83
g2036
sg76
(lp2043
g69
(g78
g71
NtRp2044
(dp2045
g74
(dp2046
g82
I4
ssg83
Nsg76
(lp2047
g69
(g85
g71
NtRp2048
(dp2049
g74
(dp2050
sg83
g2044
sg76
(lp2051
g69
(g90
g71
NtRp2052
(dp2053
g74
(dp2054
g94
g95
ssg83
g2048
sg76
(lp2055
S'environ'
p2056
asbag69
(g90
g71
NtRp2057
(dp2058
g74
(dp2059
g101
g102
ssg83
g2048
sg76
(lp2060
S':'
asbag69
(g90
g71
NtRp2061
(dp2062
g74
(dp2063
sg83
g2048
sg76
(lp2064
g69
(g70
g71
NtRp2065
(dp2066
g74
(dp2067
g82
I4
ssg83
g2061
sg76
(lp2068
g69
(g78
g71
NtRp2069
(dp2070
g74
(dp2071
g82
I3
ssg83
Nsg76
(lp2072
g69
(g85
g71
NtRp2073
(dp2074
g74
(dp2075
sg83
g2069
sg76
(lp2076
g69
(g90
g71
NtRp2077
(dp2078
g74
(dp2079
g94
g95
ssg83
g2073
sg76
(lp2080
S'HTTP_ACCEPT'
p2081
asbag69
(g90
g71
NtRp2082
(dp2083
g74
(dp2084
g101
g102
ssg83
g2073
sg76
(lp2085
S':'
asbag69
(g90
g71
NtRp2086
(dp2087
g74
(dp2088
sg83
g2073
sg76
(lp2089
g69
(g70
g71
NtRp2090
(dp2091
g74
(dp2092
g82
I3
ssg83
g2086
sg76
(lp2093
g645
asbasbasbag69
(g85
g71
NtRp2094
(dp2095
g74
(dp2096
sg83
g2069
sg76
(lp2097
g69
(g90
g71
NtRp2098
(dp2099
g74
(dp2100
g94
g95
ssg83
g2094
sg76
(lp2101
S'HTTP_ACCEPT_ENCODING'
p2102
asbag69
(g90
g71
NtRp2103
(dp2104
g74
(dp2105
g101
g102
ssg83
g2094
sg76
(lp2106
S':'
asbag69
(g90
g71
NtRp2107
(dp2108
g74
(dp2109
sg83
g2094
sg76
(lp2110
g69
(g70
g71
NtRp2111
(dp2112
g74
(dp2113
g82
I3
ssg83
g2107
sg76
(lp2114
g667
asbasbasbag69
(g85
g71
NtRp2115
(dp2116
g74
(dp2117
sg83
g2069
sg76
(lp2118
g69
(g90
g71
NtRp2119
(dp2120
g74
(dp2121
g94
g95
ssg83
g2115
sg76
(lp2122
S'HTTP_ACCEPT_LANGUAGE'
p2123
asbag69
(g90
g71
NtRp2124
(dp2125
g74
(dp2126
g101
g102
ssg83
g2115
sg76
(lp2127
S':'
asbag69
(g90
g71
NtRp2128
(dp2129
g74
(dp2130
sg83
g2115
sg76
(lp2131
g69
(g70
g71
NtRp2132
(dp2133
g74
(dp2134
g82
I3
ssg83
g2128
sg76
(lp2135
g689
asbasbasbag69
(g85
g71
NtRp2136
(dp2137
g74
(dp2138
sg83
g2069
sg76
(lp2139
g69
(g90
g71
NtRp2140
(dp2141
g74
(dp2142
g94
g95
ssg83
g2136
sg76
(lp2143
S'HTTP_CACHE_CONTROL'
p2144
asbag69
(g90
g71
NtRp2145
(dp2146
g74
(dp2147
g101
g102
ssg83
g2136
sg76
(lp2148
S':'
asbag69
(g90
g71
NtRp2149
(dp2150
g74
(dp2151
sg83
g2136
sg76
(lp2152
g69
(g70
g71
NtRp2153
(dp2154
g74
(dp2155
g82
I3
ssg83
g2149
sg76
(lp2156
g711
asbasbasbag69
(g85
g71
NtRp2157
(dp2158
g74
(dp2159
sg83
g2069
sg76
(lp2160
g69
(g90
g71
NtRp2161
(dp2162
g74
(dp2163
g94
g95
ssg83
g2157
sg76
(lp2164
S'HTTP_CONNECTION'
p2165
asbag69
(g90
g71
NtRp2166
(dp2167
g74
(dp2168
g101
g102
ssg83
g2157
sg76
(lp2169
S':'
asbag69
(g90
g71
NtRp2170
(dp2171
g74
(dp2172
sg83
g2157
sg76
(lp2173
g69
(g70
g71
NtRp2174
(dp2175
g74
(dp2176
g82
I3
ssg83
g2170
sg76
(lp2177
g733
asbasbasbag69
(g85
g71
NtRp2178
(dp2179
g74
(dp2180
sg83
g2069
sg76
(lp2181
g69
(g90
g71
NtRp2182
(dp2183
g74
(dp2184
g94
g95
ssg83
g2178
sg76
(lp2185
S'HTTP_COOKIE'
p2186
asbag69
(g90
g71
NtRp2187
(dp2188
g74
(dp2189
g101
g102
ssg83
g2178
sg76
(lp2190
S':'
asbag69
(g90
g71
NtRp2191
(dp2192
g74
(dp2193
sg83
g2178
sg76
(lp2194
g69
(g70
g71
NtRp2195
(dp2196
g74
(dp2197
g82
I3
ssg83
g2191
sg76
(lp2198
g755
asbasbasbag69
(g85
g71
NtRp2199
(dp2200
g74
(dp2201
sg83
g2069
sg76
(lp2202
g69
(g90
g71
NtRp2203
(dp2204
g74
(dp2205
g94
g95
ssg83
g2199
sg76
(lp2206
S'HTTP_HOST'
p2207
asbag69
(g90
g71
NtRp2208
(dp2209
g74
(dp2210
g101
g102
ssg83
g2199
sg76
(lp2211
S':'
asbag69
(g90
g71
NtRp2212
(dp2213
g74
(dp2214
sg83
g2199
sg76
(lp2215
g69
(g70
g71
NtRp2216
(dp2217
g74
(dp2218
g82
I3
ssg83
g2212
sg76
(lp2219
g777
asbasbasbag69
(g85
g71
NtRp2220
(dp2221
g74
(dp2222
sg83
g2069
sg76
(lp2223
g69
(g90
g71
NtRp2224
(dp2225
g74
(dp2226
g94
g95
ssg83
g2220
sg76
(lp2227
S'HTTP_REFERER'
p2228
asbag69
(g90
g71
NtRp2229
(dp2230
g74
(dp2231
g101
g102
ssg83
g2220
sg76
(lp2232
S':'
asbag69
(g90
g71
NtRp2233
(dp2234
g74
(dp2235
sg83
g2220
sg76
(lp2236
g69
(g70
g71
NtRp2237
(dp2238
g74
(dp2239
g82
I3
ssg83
g2233
sg76
(lp2240
g799
asbasbasbag69
(g85
g71
NtRp2241
(dp2242
g74
(dp2243
sg83
g2069
sg76
(lp2244
g69
(g90
g71
NtRp2245
(dp2246
g74
(dp2247
g94
g95
ssg83
g2241
sg76
(lp2248
S'HTTP_USER_AGENT'
p2249
asbag69
(g90
g71
NtRp2250
(dp2251
g74
(dp2252
g101
g102
ssg83
g2241
sg76
(lp2253
S':'
asbag69
(g90
g71
NtRp2254
(dp2255
g74
(dp2256
sg83
g2241
sg76
(lp2257
g69
(g70
g71
NtRp2258
(dp2259
g74
(dp2260
g82
I3
ssg83
g2254
sg76
(lp2261
g821
asbasbasbag69
(g85
g71
NtRp2262
(dp2263
g74
(dp2264
sg83
g2069
sg76
(lp2265
g69
(g90
g71
NtRp2266
(dp2267
g74
(dp2268
g94
g95
ssg83
g2262
sg76
(lp2269
S'PATH_INFO'
p2270
asbag69
(g90
g71
NtRp2271
(dp2272
g74
(dp2273
g101
g102
ssg83
g2262
sg76
(lp2274
S':'
asbag69
(g90
g71
NtRp2275
(dp2276
g74
(dp2277
sg83
g2262
sg76
(lp2278
g69
(g70
g71
NtRp2279
(dp2280
g74
(dp2281
g82
I3
ssg83
g2275
sg76
(lp2282
g885
asbasbasbag69
(g85
g71
NtRp2283
(dp2284
g74
(dp2285
sg83
g2069
sg76
(lp2286
g69
(g90
g71
NtRp2287
(dp2288
g74
(dp2289
g94
g95
ssg83
g2283
sg76
(lp2290
S'QUERY_STRING'
p2291
asbag69
(g90
g71
NtRp2292
(dp2293
g74
(dp2294
g101
g102
ssg83
g2283
sg76
(lp2295
S':'
asbag69
(g90
g71
NtRp2296
(dp2297
g74
(dp2298
sg83
g2283
sg76
(lp2299
g69
(g70
g71
NtRp2300
(dp2301
g74
(dp2302
g82
I3
ssg83
g2296
sg76
(lp2303
S''
asbasbasbag69
(g85
g71
NtRp2304
(dp2305
g74
(dp2306
sg83
g2069
sg76
(lp2307
g69
(g90
g71
NtRp2308
(dp2309
g74
(dp2310
g94
g95
ssg83
g2304
sg76
(lp2311
S'REMOTE_ADDR'
p2312
asbag69
(g90
g71
NtRp2313
(dp2314
g74
(dp2315
g101
g102
ssg83
g2304
sg76
(lp2316
S':'
asbag69
(g90
g71
NtRp2317
(dp2318
g74
(dp2319
sg83
g2304
sg76
(lp2320
g69
(g70
g71
NtRp2321
(dp2322
g74
(dp2323
g82
I3
ssg83
g2317
sg76
(lp2324
g202
asbasbasbag69
(g85
g71
NtRp2325
(dp2326
g74
(dp2327
sg83
g2069
sg76
(lp2328
g69
(g90
g71
NtRp2329
(dp2330
g74
(dp2331
g94
g95
ssg83
g2325
sg76
(lp2332
S'REMOTE_PORT'
p2333
asbag69
(g90
g71
NtRp2334
(dp2335
g74
(dp2336
g101
g102
ssg83
g2325
sg76
(lp2337
S':'
asbag69
(g90
g71
NtRp2338
(dp2339
g74
(dp2340
sg83
g2325
sg76
(lp2341
g69
(g70
g71
NtRp2342
(dp2343
g74
(dp2344
g82
I3
ssg83
g2338
sg76
(lp2345
g949
asbasbasbag69
(g85
g71
NtRp2346
(dp2347
g74
(dp2348
sg83
g2069
sg76
(lp2349
g69
(g90
g71
NtRp2350
(dp2351
g74
(dp2352
g94
g95
ssg83
g2346
sg76
(lp2353
S'REQUEST_METHOD'
p2354
asbag69
(g90
g71
NtRp2355
(dp2356
g74
(dp2357
g101
g102
ssg83
g2346
sg76
(lp2358
S':'
asbag69
(g90
g71
NtRp2359
(dp2360
g74
(dp2361
sg83
g2346
sg76
(lp2362
g69
(g70
g71
NtRp2363
(dp2364
g74
(dp2365
g82
I3
ssg83
g2359
sg76
(lp2366
g971
asbasbasbag69
(g85
g71
NtRp2367
(dp2368
g74
(dp2369
sg83
g2069
sg76
(lp2370
g69
(g90
g71
NtRp2371
(dp2372
g74
(dp2373
g94
g95
ssg83
g2367
sg76
(lp2374
S'SCRIPT_NAME'
p2375
asbag69
(g90
g71
NtRp2376
(dp2377
g74
(dp2378
g101
g102
ssg83
g2367
sg76
(lp2379
S':'
asbag69
(g90
g71
NtRp2380
(dp2381
g74
(dp2382
sg83
g2367
sg76
(lp2383
g69
(g70
g71
NtRp2384
(dp2385
g74
(dp2386
g82
I3
ssg83
g2380
sg76
(lp2387
S''
asbasbasbag69
(g85
g71
NtRp2388
(dp2389
g74
(dp2390
sg83
g2069
sg76
(lp2391
g69
(g90
g71
NtRp2392
(dp2393
g74
(dp2394
g94
g95
ssg83
g2388
sg76
(lp2395
S'SERVER_NAME'
p2396
asbag69
(g90
g71
NtRp2397
(dp2398
g74
(dp2399
g101
g102
ssg83
g2388
sg76
(lp2400
S':'
asbag69
(g90
g71
NtRp2401
(dp2402
g74
(dp2403
sg83
g2388
sg76
(lp2404
g69
(g70
g71
NtRp2405
(dp2406
g74
(dp2407
g82
I3
ssg83
g2401
sg76
(lp2408
g1014
asbasbasbag69
(g85
g71
NtRp2409
(dp2410
g74
(dp2411
sg83
g2069
sg76
(lp2412
g69
(g90
g71
NtRp2413
(dp2414
g74
(dp2415
g94
g95
ssg83
g2409
sg76
(lp2416
S'SERVER_PORT'
p2417
asbag69
(g90
g71
NtRp2418
(dp2419
g74
(dp2420
g101
g102
ssg83
g2409
sg76
(lp2421
S':'
asbag69
(g90
g71
NtRp2422
(dp2423
g74
(dp2424
sg83
g2409
sg76
(lp2425
g69
(g70
g71
NtRp2426
(dp2427
g74
(dp2428
g82
I3
ssg83
g2422
sg76
(lp2429
g1036
asbasbasbag69
(g85
g71
NtRp2430
(dp2431
g74
(dp2432
sg83
g2069
sg76
(lp2433
g69
(g90
g71
NtRp2434
(dp2435
g74
(dp2436
g94
g95
ssg83
g2430
sg76
(lp2437
S'SERVER_PROTOCOL'
p2438
asbag69
(g90
g71
NtRp2439
(dp2440
g74
(dp2441
g101
g102
ssg83
g2430
sg76
(lp2442
S':'
asbag69
(g90
g71
NtRp2443
(dp2444
g74
(dp2445
sg83
g2430
sg76
(lp2446
g69
(g70
g71
NtRp2447
(dp2448
g74
(dp2449
g82
I3
ssg83
g2443
sg76
(lp2450
g1058
asbasbasbag69
(g85
g71
NtRp2451
(dp2452
g74
(dp2453
sg83
g2069
sg76
(lp2454
g69
(g90
g71
NtRp2455
(dp2456
g74
(dp2457
g94
g95
ssg83
g2451
sg76
(lp2458
S'SERVER_SOFTWARE'
p2459
asbag69
(g90
g71
NtRp2460
(dp2461
g74
(dp2462
g101
g102
ssg83
g2451
sg76
(lp2463
S':'
asbag69
(g90
g71
NtRp2464
(dp2465
g74
(dp2466
sg83
g2451
sg76
(lp2467
g69
(g70
g71
NtRp2468
(dp2469
g74
(dp2470
g82
I3
ssg83
g2464
sg76
(lp2471
g1080
asbasbasbag69
(g85
g71
NtRp2472
(dp2473
g74
(dp2474
sg83
g2069
sg76
(lp2475
g69
(g90
g71
NtRp2476
(dp2477
g74
(dp2478
g94
g95
ssg83
g2472
sg76
(lp2479
S'wsgi.errors'
p2480
asbag69
(g90
g71
NtRp2481
(dp2482
g74
(dp2483
g101
g102
ssg83
g2472
sg76
(lp2484
S':'
asbag69
(g90
g71
NtRp2485
(dp2486
g74
(dp2487
sg83
g2472
sg76
(lp2488
g69
(g70
g71
NtRp2489
(dp2490
g74
(dp2491
g82
I3
ssg83
g2485
sg76
(lp2492
S"<open file '<stderr>', mode 'w' at 0x7fa5ed7d0270>"
p2493
asbasbasbag69
(g85
g71
NtRp2494
(dp2495
g74
(dp2496
sg83
g2069
sg76
(lp2497
g69
(g90
g71
NtRp2498
(dp2499
g74
(dp2500
g94
g95
ssg83
g2494
sg76
(lp2501
S'wsgi.file_wrapper'
p2502
asbag69
(g90
g71
NtRp2503
(dp2504
g74
(dp2505
g101
g102
ssg83
g2494
sg76
(lp2506
S':'
asbag69
(g90
g71
NtRp2507
(dp2508
g74
(dp2509
sg83
g2494
sg76
(lp2510
g69
(g70
g71
NtRp2511
(dp2512
g74
(dp2513
g82
I3
ssg83
g2507
sg76
(lp2514
S'<class wsgiref.util.FileWrapper at 0x16b20b8>'
p2515
asbasbasbag69
(g85
g71
NtRp2516
(dp2517
g74
(dp2518
sg83
g2069
sg76
(lp2519
g69
(g90
g71
NtRp2520
(dp2521
g74
(dp2522
g94
g95
ssg83
g2516
sg76
(lp2523
S'wsgi.input'
p2524
asbag69
(g90
g71
NtRp2525
(dp2526
g74
(dp2527
g101
g102
ssg83
g2516
sg76
(lp2528
S':'
asbag69
(g90
g71
NtRp2529
(dp2530
g74
(dp2531
sg83
g2516
sg76
(lp2532
g69
(g70
g71
NtRp2533
(dp2534
g74
(dp2535
g82
I3
ssg83
g2529
sg76
(lp2536
S'<cStringIO.StringO object at 0x1de0f10>'
p2537
asbasbasbag69
(g85
g71
NtRp2538
(dp2539
g74
(dp2540
sg83
g2069
sg76
(lp2541
g69
(g90
g71
NtRp2542
(dp2543
g74
(dp2544
g94
g95
ssg83
g2538
sg76
(lp2545
S'wsgi.multiprocess'
p2546
asbag69
(g90
g71
NtRp2547
(dp2548
g74
(dp2549
g101
g102
ssg83
g2538
sg76
(lp2550
S':'
asbag69
(g90
g71
NtRp2551
(dp2552
g74
(dp2553
sg83
g2538
sg76
(lp2554
g69
(g70
g71
NtRp2555
(dp2556
g74
(dp2557
g82
I3
ssg83
g2551
sg76
(lp2558
g112
asbasbasbag69
(g85
g71
NtRp2559
(dp2560
g74
(dp2561
sg83
g2069
sg76
(lp2562
g69
(g90
g71
NtRp2563
(dp2564
g74
(dp2565
g94
g95
ssg83
g2559
sg76
(lp2566
S'wsgi.multithread'
p2567
asbag69
(g90
g71
NtRp2568
(dp2569
g74
(dp2570
g101
g102
ssg83
g2559
sg76
(lp2571
S':'
asbag69
(g90
g71
NtRp2572
(dp2573
g74
(dp2574
sg83
g2559
sg76
(lp2575
g69
(g70
g71
NtRp2576
(dp2577
g74
(dp2578
g82
I3
ssg83
g2572
sg76
(lp2579
g1320
asbasbasbag69
(g85
g71
NtRp2580
(dp2581
g74
(dp2582
sg83
g2069
sg76
(lp2583
g69
(g90
g71
NtRp2584
(dp2585
g74
(dp2586
g94
g95
ssg83
g2580
sg76
(lp2587
S'wsgi.run_once'
p2588
asbag69
(g90
g71
NtRp2589
(dp2590
g74
(dp2591
g101
g102
ssg83
g2580
sg76
(lp2592
S':'
asbag69
(g90
g71
NtRp2593
(dp2594
g74
(dp2595
sg83
g2580
sg76
(lp2596
g69
(g70
g71
NtRp2597
(dp2598
g74
(dp2599
g82
I3
ssg83
g2593
sg76
(lp2600
g112
asbasbasbag69
(g85
g71
NtRp2601
(dp2602
g74
(dp2603
sg83
g2069
sg76
(lp2604
g69
(g90
g71
NtRp2605
(dp2606
g74
(dp2607
g94
g95
ssg83
g2601
sg76
(lp2608
S'wsgi.url_scheme'
p2609
asbag69
(g90
g71
NtRp2610
(dp2611
g74
(dp2612
g101
g102
ssg83
g2601
sg76
(lp2613
S':'
asbag69
(g90
g71
NtRp2614
(dp2615
g74
(dp2616
sg83
g2601
sg76
(lp2617
g69
(g70
g71
NtRp2618
(dp2619
g74
(dp2620
g82
I3
ssg83
g2614
sg76
(lp2621
g1363
asbasbasbag69
(g85
g71
NtRp2622
(dp2623
g74
(dp2624
sg83
g2069
sg76
(lp2625
g69
(g90
g71
NtRp2626
(dp2627
g74
(dp2628
g94
g95
ssg83
g2622
sg76
(lp2629
S'wsgi.version'
p2630
asbag69
(g90
g71
NtRp2631
(dp2632
g74
(dp2633
g101
g102
ssg83
g2622
sg76
(lp2634
S':'
asbag69
(g90
g71
NtRp2635
(dp2636
g74
(dp2637
sg83
g2622
sg76
(lp2638
g69
(g70
g71
NtRp2639
(dp2640
g74
(dp2641
g82
I3
ssg83
g2635
sg76
(lp2642
S'1'
asbasbasbasbasbasbasbasbasbasbasbasbasbsS'frames'
p2643
(lp2644
(dp2645
S'file'
p2646
S'/home/marco/projects/final/web2py/gluon/restricted.py'
p2647
sS'dump'
p2648
(dp2649
S'code'
p2650
S"'# -*- coding: utf-8 -*-\\n# this file is released ..., [\\n        \\n        \\n        ]\\n         )]\\n_()\\n\\n'"
p2651
sS'layer'
p2652
S"'/home/marco/projects/final/web2py/applications/woppi/models/menu.py'"
p2653
sS'global compile2'
p2654
S'<function compile2>'
p2655
sS'ccode'
p2656
S'undefined'
p2657
ssS'lnum'
p2658
I204
sS'lines'
p2659
(dp2660
I199
S"    environment['__name__'] = '__restricted__'"
p2661
sI200
S'    try:'
p2662
sI201
S'        if type(code) == types.CodeType:'
p2663
sI202
S'            ccode = code'
p2664
sI203
S'        else:'
p2665
sI204
S'            ccode = compile2(code,layer)'
p2666
sI205
S'        exec ccode in environment'
p2667
sI206
S'    except HTTP:'
p2668
sI207
S'        raise'
p2669
sI208
S'    except RestrictedError:'
p2670
ssS'call'
p2671
S"(code='# -*- coding: utf-8 -*-\\n# this file is released ..., [\\n        \\n        \\n        ]\\n         )]\\n_()\\n\\n', environment={'A': <class 'gluon.html.A'>, 'Auth': <class 'gluon.tools.Auth'>, 'B': <class 'gluon.html.B'>, 'BEAUTIFY': <class 'gluon.html.BEAUTIFY'>, 'BODY': <class 'gluon.html.BODY'>, 'BR': <class 'gluon.html.BR'>, 'BUTTON': <class 'gluon.html.BUTTON'>, 'CAT': <class 'gluon.html.CAT'>, 'CENTER': <class 'gluon.html.CENTER'>, 'CLEANUP': <class 'gluon.validators.CLEANUP'>, ...}, layer='/home/marco/projects/final/web2py/applications/woppi/models/menu.py')"
p2672
sS'func'
p2673
S'restricted'
p2674
sa(dp2675
g2646
S'/home/marco/projects/final/web2py/gluon/restricted.py'
p2676
sg2648
(dp2677
S'builtincompile'
p2678
S'<built-in function compile>'
p2679
sS'code'
p2680
S"'# -*- coding: utf-8 -*-\\n# this file is released ..., [\\n        \\n        \\n        ]\\n         )]\\n_()\\n\\n'"
p2681
sS'code.rstrip'
p2682
S'<built-in method rstrip of str object>'
p2683
sS').replace'
p2684
g2657
sS'layer'
p2685
S"'/home/marco/projects/final/web2py/applications/woppi/models/menu.py'"
p2686
ssg2658
I189
sg2659
(dp2687
I192
S'    """'
p2688
sI193
S'    runs code in environment and returns the output. if an exception occurs'
p2689
sI184
S''
sI185
S'def compile2(code,layer):'
p2690
sI186
S'    """'
p2691
sI187
S"    The +'\\n' is necessary else compile fails when code ends in a comment."
p2692
sI188
S'    """'
p2693
sI189
S"    return compile(code.rstrip().replace('\\r\\n','\\n')+'\\n', layer, 'exec')"
p2694
sI190
S''
sI191
S"def restricted(code, environment=None, layer='Unknown'):"
p2695
ssg2671
S"(code='# -*- coding: utf-8 -*-\\n# this file is released ..., [\\n        \\n        \\n        ]\\n         )]\\n_()\\n\\n', layer='/home/marco/projects/final/web2py/applications/woppi/models/menu.py')"
p2696
sg2673
S'compile2'
p2697
sasS'pyver'
p2698
S'Python 2.7.3rc2: /usr/bin/python'
p2699
sS'session'
p2700
g69
(g70
g71
NtRp2701
(dp2702
g74
(dp2703
sg76
(lp2704
g69
(g78
g71
NtRp2705
(dp2706
g74
(dp2707
g82
I5
ssg83
Nsg76
(lp2708
sbasbsS'etype'
p2709
S"<type 'exceptions.SyntaxError'>"
p2710
sS'date'
p2711
S'Thu Apr 12 01:04:32 2012'
p2712
sS'response'
p2713
g69
(g70
g71
NtRp2714
(dp2715
g74
(dp2716
sg76
(lp2717
g69
(g78
g71
NtRp2718
(dp2719
g74
(dp2720
g82
I5
ssg83
Nsg76
(lp2721
g69
(g85
g71
NtRp2722
(dp2723
g74
(dp2724
sg83
g2718
sg76
(lp2725
g69
(g90
g71
NtRp2726
(dp2727
g74
(dp2728
g94
g95
ssg83
g2722
sg76
(lp2729
g167
asbag69
(g90
g71
NtRp2730
(dp2731
g74
(dp2732
g101
g102
ssg83
g2722
sg76
(lp2733
S':'
asbag69
(g90
g71
NtRp2734
(dp2735
g74
(dp2736
sg83
g2722
sg76
(lp2737
g69
(g70
g71
NtRp2738
(dp2739
g74
(dp2740
g82
I5
ssg83
g2734
sg76
(lp2741
S'<cStringIO.StringO object at 0x1fc9e68>'
p2742
asbasbasbag69
(g85
g71
NtRp2743
(dp2744
g74
(dp2745
sg83
g2718
sg76
(lp2746
g69
(g90
g71
NtRp2747
(dp2748
g74
(dp2749
g94
g95
ssg83
g2743
sg76
(lp2750
g233
asbag69
(g90
g71
NtRp2751
(dp2752
g74
(dp2753
g101
g102
ssg83
g2743
sg76
(lp2754
S':'
asbag69
(g90
g71
NtRp2755
(dp2756
g74
(dp2757
sg83
g2743
sg76
(lp2758
g69
(g70
g71
NtRp2759
(dp2760
g74
(dp2761
g82
I5
ssg83
g2755
sg76
(lp2762
g69
(g78
g71
NtRp2763
(dp2764
g74
(dp2765
g82
I4
ssg83
Nsg76
(lp2766
g69
(g85
g71
NtRp2767
(dp2768
g74
(dp2769
sg83
g2763
sg76
(lp2770
g69
(g90
g71
NtRp2771
(dp2772
g74
(dp2773
g94
g95
ssg83
g2767
sg76
(lp2774
S'session_id_woppi'
p2775
asbag69
(g90
g71
NtRp2776
(dp2777
g74
(dp2778
g101
g102
ssg83
g2767
sg76
(lp2779
S':'
asbag69
(g90
g71
NtRp2780
(dp2781
g74
(dp2782
sg83
g2767
sg76
(lp2783
g69
(g70
g71
NtRp2784
(dp2785
g74
(dp2786
g82
I4
ssg83
g2780
sg76
(lp2787
g69
(g78
g71
NtRp2788
(dp2789
g74
(dp2790
g82
I3
ssg83
Nsg76
(lp2791
g69
(g85
g71
NtRp2792
(dp2793
g74
(dp2794
sg83
g2788
sg76
(lp2795
g69
(g90
g71
NtRp2796
(dp2797
g74
(dp2798
g94
g95
ssg83
g2792
sg76
(lp2799
g283
asbag69
(g90
g71
NtRp2800
(dp2801
g74
(dp2802
g101
g102
ssg83
g2792
sg76
(lp2803
S':'
asbag69
(g90
g71
NtRp2804
(dp2805
g74
(dp2806
sg83
g2792
sg76
(lp2807
g69
(g70
g71
NtRp2808
(dp2809
g74
(dp2810
g82
I3
ssg83
g2804
sg76
(lp2811
S''
asbasbasbag69
(g85
g71
NtRp2812
(dp2813
g74
(dp2814
sg83
g2788
sg76
(lp2815
g69
(g90
g71
NtRp2816
(dp2817
g74
(dp2818
g94
g95
ssg83
g2812
sg76
(lp2819
g304
asbag69
(g90
g71
NtRp2820
(dp2821
g74
(dp2822
g101
g102
ssg83
g2812
sg76
(lp2823
S':'
asbag69
(g90
g71
NtRp2824
(dp2825
g74
(dp2826
sg83
g2812
sg76
(lp2827
g69
(g70
g71
NtRp2828
(dp2829
g74
(dp2830
g82
I3
ssg83
g2824
sg76
(lp2831
S''
asbasbasbag69
(g85
g71
NtRp2832
(dp2833
g74
(dp2834
sg83
g2788
sg76
(lp2835
g69
(g90
g71
NtRp2836
(dp2837
g74
(dp2838
g94
g95
ssg83
g2832
sg76
(lp2839
g325
asbag69
(g90
g71
NtRp2840
(dp2841
g74
(dp2842
g101
g102
ssg83
g2832
sg76
(lp2843
S':'
asbag69
(g90
g71
NtRp2844
(dp2845
g74
(dp2846
sg83
g2832
sg76
(lp2847
g69
(g70
g71
NtRp2848
(dp2849
g74
(dp2850
g82
I3
ssg83
g2844
sg76
(lp2851
S''
asbasbasbag69
(g85
g71
NtRp2852
(dp2853
g74
(dp2854
sg83
g2788
sg76
(lp2855
g69
(g90
g71
NtRp2856
(dp2857
g74
(dp2858
g94
g95
ssg83
g2852
sg76
(lp2859
g346
asbag69
(g90
g71
NtRp2860
(dp2861
g74
(dp2862
g101
g102
ssg83
g2852
sg76
(lp2863
S':'
asbag69
(g90
g71
NtRp2864
(dp2865
g74
(dp2866
sg83
g2852
sg76
(lp2867
g69
(g70
g71
NtRp2868
(dp2869
g74
(dp2870
g82
I3
ssg83
g2864
sg76
(lp2871
S''
asbasbasbag69
(g85
g71
NtRp2872
(dp2873
g74
(dp2874
sg83
g2788
sg76
(lp2875
g69
(g90
g71
NtRp2876
(dp2877
g74
(dp2878
g94
g95
ssg83
g2872
sg76
(lp2879
g367
asbag69
(g90
g71
NtRp2880
(dp2881
g74
(dp2882
g101
g102
ssg83
g2872
sg76
(lp2883
S':'
asbag69
(g90
g71
NtRp2884
(dp2885
g74
(dp2886
sg83
g2872
sg76
(lp2887
g69
(g70
g71
NtRp2888
(dp2889
g74
(dp2890
g82
I3
ssg83
g2884
sg76
(lp2891
S''
asbasbasbag69
(g85
g71
NtRp2892
(dp2893
g74
(dp2894
sg83
g2788
sg76
(lp2895
g69
(g90
g71
NtRp2896
(dp2897
g74
(dp2898
g94
g95
ssg83
g2892
sg76
(lp2899
g388
asbag69
(g90
g71
NtRp2900
(dp2901
g74
(dp2902
g101
g102
ssg83
g2892
sg76
(lp2903
S':'
asbag69
(g90
g71
NtRp2904
(dp2905
g74
(dp2906
sg83
g2892
sg76
(lp2907
g69
(g70
g71
NtRp2908
(dp2909
g74
(dp2910
g82
I3
ssg83
g2904
sg76
(lp2911
S'/'
asbasbasbag69
(g85
g71
NtRp2912
(dp2913
g74
(dp2914
sg83
g2788
sg76
(lp2915
g69
(g90
g71
NtRp2916
(dp2917
g74
(dp2918
g94
g95
ssg83
g2912
sg76
(lp2919
g409
asbag69
(g90
g71
NtRp2920
(dp2921
g74
(dp2922
g101
g102
ssg83
g2912
sg76
(lp2923
S':'
asbag69
(g90
g71
NtRp2924
(dp2925
g74
(dp2926
sg83
g2912
sg76
(lp2927
g69
(g70
g71
NtRp2928
(dp2929
g74
(dp2930
g82
I3
ssg83
g2924
sg76
(lp2931
S''
asbasbasbag69
(g85
g71
NtRp2932
(dp2933
g74
(dp2934
sg83
g2788
sg76
(lp2935
g69
(g90
g71
NtRp2936
(dp2937
g74
(dp2938
g94
g95
ssg83
g2932
sg76
(lp2939
g430
asbag69
(g90
g71
NtRp2940
(dp2941
g74
(dp2942
g101
g102
ssg83
g2932
sg76
(lp2943
S':'
asbag69
(g90
g71
NtRp2944
(dp2945
g74
(dp2946
sg83
g2932
sg76
(lp2947
g69
(g70
g71
NtRp2948
(dp2949
g74
(dp2950
g82
I3
ssg83
g2944
sg76
(lp2951
S''
asbasbasbasbasbasbasbasbasbasbasbag69
(g85
g71
NtRp2952
(dp2953
g74
(dp2954
sg83
g2718
sg76
(lp2955
g69
(g90
g71
NtRp2956
(dp2957
g74
(dp2958
g94
g95
ssg83
g2952
sg76
(lp2959
S'delimiters'
p2960
asbag69
(g90
g71
NtRp2961
(dp2962
g74
(dp2963
g101
g102
ssg83
g2952
sg76
(lp2964
S':'
asbag69
(g90
g71
NtRp2965
(dp2966
g74
(dp2967
sg83
g2952
sg76
(lp2968
g69
(g70
g71
NtRp2969
(dp2970
g74
(dp2971
g82
I5
ssg83
g2965
sg76
(lp2972
g69
(g78
g71
NtRp2973
(dp2974
g74
(dp2975
g82
I4
ssg83
Nsg76
(lp2976
g69
(g85
g71
NtRp2977
(dp2978
g74
(dp2979
sg83
g2973
sg76
(lp2980
g69
(g90
g71
NtRp2981
(dp2982
g74
(dp2983
sg83
g2977
sg76
(lp2984
g69
(g70
g71
NtRp2985
(dp2986
g74
(dp2987
g82
I4
ssg83
g2981
sg76
(lp2988
S'{{'
p2989
asbasbasbag69
(g85
g71
NtRp2990
(dp2991
g74
(dp2992
sg83
g2973
sg76
(lp2993
g69
(g90
g71
NtRp2994
(dp2995
g74
(dp2996
sg83
g2990
sg76
(lp2997
g69
(g70
g71
NtRp2998
(dp2999
g74
(dp3000
g82
I4
ssg83
g2994
sg76
(lp3001
S'}}'
p3002
asbasbasbasbasbasbasbag69
(g85
g71
NtRp3003
(dp3004
g74
(dp3005
sg83
g2718
sg76
(lp3006
g69
(g90
g71
NtRp3007
(dp3008
g74
(dp3009
g94
g95
ssg83
g3003
sg76
(lp3010
S'files'
p3011
asbag69
(g90
g71
NtRp3012
(dp3013
g74
(dp3014
g101
g102
ssg83
g3003
sg76
(lp3015
S':'
asbag69
(g90
g71
NtRp3016
(dp3017
g74
(dp3018
sg83
g3003
sg76
(lp3019
g69
(g70
g71
NtRp3020
(dp3021
g74
(dp3022
g82
I5
ssg83
g3016
sg76
(lp3023
g69
(g78
g71
NtRp3024
(dp3025
g74
(dp3026
g82
I4
ssg83
Nsg76
(lp3027
sbasbasbasbag69
(g85
g71
NtRp3028
(dp3029
g74
(dp3030
sg83
g2718
sg76
(lp3031
g69
(g90
g71
NtRp3032
(dp3033
g74
(dp3034
g94
g95
ssg83
g3028
sg76
(lp3035
S'flash'
p3036
asbag69
(g90
g71
NtRp3037
(dp3038
g74
(dp3039
g101
g102
ssg83
g3028
sg76
(lp3040
S':'
asbag69
(g90
g71
NtRp3041
(dp3042
g74
(dp3043
sg83
g3028
sg76
(lp3044
g69
(g70
g71
NtRp3045
(dp3046
g74
(dp3047
g82
I5
ssg83
g3041
sg76
(lp3048
S''
asbasbasbag69
(g85
g71
NtRp3049
(dp3050
g74
(dp3051
sg83
g2718
sg76
(lp3052
g69
(g90
g71
NtRp3053
(dp3054
g74
(dp3055
g94
g95
ssg83
g3049
sg76
(lp3056
S'generic_patterns'
p3057
asbag69
(g90
g71
NtRp3058
(dp3059
g74
(dp3060
g101
g102
ssg83
g3049
sg76
(lp3061
S':'
asbag69
(g90
g71
NtRp3062
(dp3063
g74
(dp3064
sg83
g3049
sg76
(lp3065
g69
(g70
g71
NtRp3066
(dp3067
g74
(dp3068
g82
I5
ssg83
g3062
sg76
(lp3069
g69
(g78
g71
NtRp3070
(dp3071
g74
(dp3072
g82
I4
ssg83
Nsg76
(lp3073
g69
(g85
g71
NtRp3074
(dp3075
g74
(dp3076
sg83
g3070
sg76
(lp3077
g69
(g90
g71
NtRp3078
(dp3079
g74
(dp3080
sg83
g3074
sg76
(lp3081
g69
(g70
g71
NtRp3082
(dp3083
g74
(dp3084
g82
I4
ssg83
g3078
sg76
(lp3085
S'*'
asbasbasbasbasbasbasbag69
(g85
g71
NtRp3086
(dp3087
g74
(dp3088
sg83
g2718
sg76
(lp3089
g69
(g90
g71
NtRp3090
(dp3091
g74
(dp3092
g94
g95
ssg83
g3086
sg76
(lp3093
S'headers'
p3094
asbag69
(g90
g71
NtRp3095
(dp3096
g74
(dp3097
g101
g102
ssg83
g3086
sg76
(lp3098
S':'
asbag69
(g90
g71
NtRp3099
(dp3100
g74
(dp3101
sg83
g3086
sg76
(lp3102
g69
(g70
g71
NtRp3103
(dp3104
g74
(dp3105
g82
I5
ssg83
g3099
sg76
(lp3106
g69
(g78
g71
NtRp3107
(dp3108
g74
(dp3109
g82
I4
ssg83
Nsg76
(lp3110
g69
(g85
g71
NtRp3111
(dp3112
g74
(dp3113
sg83
g3107
sg76
(lp3114
g69
(g90
g71
NtRp3115
(dp3116
g74
(dp3117
g94
g95
ssg83
g3111
sg76
(lp3118
S'Cache-Control'
p3119
asbag69
(g90
g71
NtRp3120
(dp3121
g74
(dp3122
g101
g102
ssg83
g3111
sg76
(lp3123
S':'
asbag69
(g90
g71
NtRp3124
(dp3125
g74
(dp3126
sg83
g3111
sg76
(lp3127
g69
(g70
g71
NtRp3128
(dp3129
g74
(dp3130
g82
I4
ssg83
g3124
sg76
(lp3131
S'no-store, no-cache, must-revalidate, post-check=0, pre-check=0'
p3132
asbasbasbag69
(g85
g71
NtRp3133
(dp3134
g74
(dp3135
sg83
g3107
sg76
(lp3136
g69
(g90
g71
NtRp3137
(dp3138
g74
(dp3139
g94
g95
ssg83
g3133
sg76
(lp3140
S'Content-Type'
p3141
asbag69
(g90
g71
NtRp3142
(dp3143
g74
(dp3144
g101
g102
ssg83
g3133
sg76
(lp3145
S':'
asbag69
(g90
g71
NtRp3146
(dp3147
g74
(dp3148
sg83
g3133
sg76
(lp3149
g69
(g70
g71
NtRp3150
(dp3151
g74
(dp3152
g82
I4
ssg83
g3146
sg76
(lp3153
S'text/html; charset=utf-8'
p3154
asbasbasbag69
(g85
g71
NtRp3155
(dp3156
g74
(dp3157
sg83
g3107
sg76
(lp3158
g69
(g90
g71
NtRp3159
(dp3160
g74
(dp3161
g94
g95
ssg83
g3155
sg76
(lp3162
S'Expires'
p3163
asbag69
(g90
g71
NtRp3164
(dp3165
g74
(dp3166
g101
g102
ssg83
g3155
sg76
(lp3167
S':'
asbag69
(g90
g71
NtRp3168
(dp3169
g74
(dp3170
sg83
g3155
sg76
(lp3171
g69
(g70
g71
NtRp3172
(dp3173
g74
(dp3174
g82
I4
ssg83
g3168
sg76
(lp3175
S'Thu, 12 Apr 2012 04:04:32 GMT'
p3176
asbasbasbag69
(g85
g71
NtRp3177
(dp3178
g74
(dp3179
sg83
g3107
sg76
(lp3180
g69
(g90
g71
NtRp3181
(dp3182
g74
(dp3183
g94
g95
ssg83
g3177
sg76
(lp3184
S'Pragma'
p3185
asbag69
(g90
g71
NtRp3186
(dp3187
g74
(dp3188
g101
g102
ssg83
g3177
sg76
(lp3189
S':'
asbag69
(g90
g71
NtRp3190
(dp3191
g74
(dp3192
sg83
g3177
sg76
(lp3193
g69
(g70
g71
NtRp3194
(dp3195
g74
(dp3196
g82
I4
ssg83
g3190
sg76
(lp3197
S'no-cache'
p3198
asbasbasbag69
(g85
g71
NtRp3199
(dp3200
g74
(dp3201
sg83
g3107
sg76
(lp3202
g69
(g90
g71
NtRp3203
(dp3204
g74
(dp3205
g94
g95
ssg83
g3199
sg76
(lp3206
S'X-Powered-By'
p3207
asbag69
(g90
g71
NtRp3208
(dp3209
g74
(dp3210
g101
g102
ssg83
g3199
sg76
(lp3211
S':'
asbag69
(g90
g71
NtRp3212
(dp3213
g74
(dp3214
sg83
g3199
sg76
(lp3215
g69
(g70
g71
NtRp3216
(dp3217
g74
(dp3218
g82
I4
ssg83
g3212
sg76
(lp3219
S'web2py'
p3220
asbasbasbasbasbasbasbag69
(g85
g71
NtRp3221
(dp3222
g74
(dp3223
sg83
g2718
sg76
(lp3224
g69
(g90
g71
NtRp3225
(dp3226
g74
(dp3227
g94
g95
ssg83
g3221
sg76
(lp3228
S'menu'
p3229
asbag69
(g90
g71
NtRp3230
(dp3231
g74
(dp3232
g101
g102
ssg83
g3221
sg76
(lp3233
S':'
asbag69
(g90
g71
NtRp3234
(dp3235
g74
(dp3236
sg83
g3221
sg76
(lp3237
g69
(g70
g71
NtRp3238
(dp3239
g74
(dp3240
g82
I5
ssg83
g3234
sg76
(lp3241
g69
(g78
g71
NtRp3242
(dp3243
g74
(dp3244
g82
I4
ssg83
Nsg76
(lp3245
sbasbasbasbag69
(g85
g71
NtRp3246
(dp3247
g74
(dp3248
sg83
g2718
sg76
(lp3249
g69
(g90
g71
NtRp3250
(dp3251
g74
(dp3252
g94
g95
ssg83
g3246
sg76
(lp3253
S'meta'
p3254
asbag69
(g90
g71
NtRp3255
(dp3256
g74
(dp3257
g101
g102
ssg83
g3246
sg76
(lp3258
S':'
asbag69
(g90
g71
NtRp3259
(dp3260
g74
(dp3261
sg83
g3246
sg76
(lp3262
g69
(g70
g71
NtRp3263
(dp3264
g74
(dp3265
g82
I5
ssg83
g3259
sg76
(lp3266
g69
(g78
g71
NtRp3267
(dp3268
g74
(dp3269
g82
I4
ssg83
Nsg76
(lp3270
sbasbasbasbag69
(g85
g71
NtRp3271
(dp3272
g74
(dp3273
sg83
g2718
sg76
(lp3274
g69
(g90
g71
NtRp3275
(dp3276
g74
(dp3277
g94
g95
ssg83
g3271
sg76
(lp3278
S'postprocessing'
p3279
asbag69
(g90
g71
NtRp3280
(dp3281
g74
(dp3282
g101
g102
ssg83
g3271
sg76
(lp3283
S':'
asbag69
(g90
g71
NtRp3284
(dp3285
g74
(dp3286
sg83
g3271
sg76
(lp3287
g69
(g70
g71
NtRp3288
(dp3289
g74
(dp3290
g82
I5
ssg83
g3284
sg76
(lp3291
g69
(g78
g71
NtRp3292
(dp3293
g74
(dp3294
g82
I4
ssg83
Nsg76
(lp3295
sbasbasbasbag69
(g85
g71
NtRp3296
(dp3297
g74
(dp3298
sg83
g2718
sg76
(lp3299
g69
(g90
g71
NtRp3300
(dp3301
g74
(dp3302
g94
g95
ssg83
g3296
sg76
(lp3303
S'session_file'
p3304
asbag69
(g90
g71
NtRp3305
(dp3306
g74
(dp3307
g101
g102
ssg83
g3296
sg76
(lp3308
S':'
asbag69
(g90
g71
NtRp3309
(dp3310
g74
(dp3311
sg83
g3296
sg76
(lp3312
g69
(g70
g71
NtRp3313
(dp3314
g74
(dp3315
g82
I5
ssg83
g3309
sg76
(lp3316
S"<open file '/home/marco/projects/final/web2py/applications/woppi/sessions/127.0.0.1-c3211532-bac3-4d01-a827-5a817a138778', mode 'rb+' at 0x19a7270>"
p3317
asbasbasbag69
(g85
g71
NtRp3318
(dp3319
g74
(dp3320
sg83
g2718
sg76
(lp3321
g69
(g90
g71
NtRp3322
(dp3323
g74
(dp3324
g94
g95
ssg83
g3318
sg76
(lp3325
S'session_filename'
p3326
asbag69
(g90
g71
NtRp3327
(dp3328
g74
(dp3329
g101
g102
ssg83
g3318
sg76
(lp3330
S':'
asbag69
(g90
g71
NtRp3331
(dp3332
g74
(dp3333
sg83
g3318
sg76
(lp3334
g69
(g70
g71
NtRp3335
(dp3336
g74
(dp3337
g82
I5
ssg83
g3331
sg76
(lp3338
S'/home/marco/projects/final/web2py/applications/woppi/sessions/127.0.0.1-c3211532-bac3-4d01-a827-5a817a138778'
p3339
asbasbasbag69
(g85
g71
NtRp3340
(dp3341
g74
(dp3342
sg83
g2718
sg76
(lp3343
g69
(g90
g71
NtRp3344
(dp3345
g74
(dp3346
g94
g95
ssg83
g3340
sg76
(lp3347
S'session_id'
p3348
asbag69
(g90
g71
NtRp3349
(dp3350
g74
(dp3351
g101
g102
ssg83
g3340
sg76
(lp3352
S':'
asbag69
(g90
g71
NtRp3353
(dp3354
g74
(dp3355
sg83
g3340
sg76
(lp3356
g69
(g70
g71
NtRp3357
(dp3358
g74
(dp3359
g82
I5
ssg83
g3353
sg76
(lp3360
S'127.0.0.1-c3211532-bac3-4d01-a827-5a817a138778'
p3361
asbasbasbag69
(g85
g71
NtRp3362
(dp3363
g74
(dp3364
sg83
g2718
sg76
(lp3365
g69
(g90
g71
NtRp3366
(dp3367
g74
(dp3368
g94
g95
ssg83
g3362
sg76
(lp3369
S'session_id_name'
p3370
asbag69
(g90
g71
NtRp3371
(dp3372
g74
(dp3373
g101
g102
ssg83
g3362
sg76
(lp3374
S':'
asbag69
(g90
g71
NtRp3375
(dp3376
g74
(dp3377
sg83
g3362
sg76
(lp3378
g69
(g70
g71
NtRp3379
(dp3380
g74
(dp3381
g82
I5
ssg83
g3375
sg76
(lp3382
g2775
asbasbasbag69
(g85
g71
NtRp3383
(dp3384
g74
(dp3385
sg83
g2718
sg76
(lp3386
g69
(g90
g71
NtRp3387
(dp3388
g74
(dp3389
g94
g95
ssg83
g3383
sg76
(lp3390
S'session_locked'
p3391
asbag69
(g90
g71
NtRp3392
(dp3393
g74
(dp3394
g101
g102
ssg83
g3383
sg76
(lp3395
S':'
asbag69
(g90
g71
NtRp3396
(dp3397
g74
(dp3398
sg83
g3383
sg76
(lp3399
g69
(g70
g71
NtRp3400
(dp3401
g74
(dp3402
g82
I5
ssg83
g3396
sg76
(lp3403
g1320
asbasbasbag69
(g85
g71
NtRp3404
(dp3405
g74
(dp3406
sg83
g2718
sg76
(lp3407
g69
(g90
g71
NtRp3408
(dp3409
g74
(dp3410
g94
g95
ssg83
g3404
sg76
(lp3411
S'session_new'
p3412
asbag69
(g90
g71
NtRp3413
(dp3414
g74
(dp3415
g101
g102
ssg83
g3404
sg76
(lp3416
S':'
asbag69
(g90
g71
NtRp3417
(dp3418
g74
(dp3419
sg83
g3404
sg76
(lp3420
g69
(g70
g71
NtRp3421
(dp3422
g74
(dp3423
g82
I5
ssg83
g3417
sg76
(lp3424
g112
asbasbasbag69
(g85
g71
NtRp3425
(dp3426
g74
(dp3427
sg83
g2718
sg76
(lp3428
g69
(g90
g71
NtRp3429
(dp3430
g74
(dp3431
g94
g95
ssg83
g3425
sg76
(lp3432
S'status'
p3433
asbag69
(g90
g71
NtRp3434
(dp3435
g74
(dp3436
g101
g102
ssg83
g3425
sg76
(lp3437
S':'
asbag69
(g90
g71
NtRp3438
(dp3439
g74
(dp3440
sg83
g3425
sg76
(lp3441
g69
(g70
g71
NtRp3442
(dp3443
g74
(dp3444
g82
I5
ssg83
g3438
sg76
(lp3445
S'200'
p3446
asbasbasbag69
(g85
g71
NtRp3447
(dp3448
g74
(dp3449
sg83
g2718
sg76
(lp3450
g69
(g90
g71
NtRp3451
(dp3452
g74
(dp3453
g94
g95
ssg83
g3447
sg76
(lp3454
g1984
asbag69
(g90
g71
NtRp3455
(dp3456
g74
(dp3457
g101
g102
ssg83
g3447
sg76
(lp3458
S':'
asbag69
(g90
g71
NtRp3459
(dp3460
g74
(dp3461
sg83
g3447
sg76
(lp3462
g69
(g70
g71
NtRp3463
(dp3464
g74
(dp3465
g82
I5
ssg83
g3459
sg76
(lp3466
g1997
asbasbasbag69
(g85
g71
NtRp3467
(dp3468
g74
(dp3469
sg83
g2718
sg76
(lp3470
g69
(g90
g71
NtRp3471
(dp3472
g74
(dp3473
g94
g95
ssg83
g3467
sg76
(lp3474
S'view'
p3475
asbag69
(g90
g71
NtRp3476
(dp3477
g74
(dp3478
g101
g102
ssg83
g3467
sg76
(lp3479
S':'
asbag69
(g90
g71
NtRp3480
(dp3481
g74
(dp3482
sg83
g3467
sg76
(lp3483
g69
(g70
g71
NtRp3484
(dp3485
g74
(dp3486
g82
I5
ssg83
g3480
sg76
(lp3487
S'interno/index.html'
p3488
asbasbasbasbasbsS'locals'
p3489
(dp3490
g4
S"'/home/marco/projects/final/web2py/applications/woppi/models/menu.py'"
p3491
sg6
S"'# -*- coding: utf-8 -*-\\n# this file is released ..., [\\n        \\n        \\n        ]\\n         )]\\n_()\\n\\n'"
p3492
sssS'traceback'
p3493
S'Traceback (most recent call last):\n  File "/home/marco/projects/final/web2py/gluon/restricted.py", line 204, in restricted\n    ccode = compile2(code,layer)\n  File "/home/marco/projects/final/web2py/gluon/restricted.py", line 189, in compile2\n    return compile(code.rstrip().replace(\'\\r\\n\',\'\\n\')+\'\\n\', layer, \'exec\')\n  File "/home/marco/projects/final/web2py/applications/woppi/models/menu.py", line 59\n    )]\n     ^\nSyntaxError: invalid syntax\n'
p3494
s.