(dp1
S'output'
p2
S"<class 'sqlite3.OperationalError'> Cannot add a UNIQUE column"
p3
sS'layer'
p4
S'/home/marco/projects/final/web2py/applications/woppi/models/db.py'
p5
sS'code'
p6
S"# -*- coding: utf-8 -*-\nfrom gluon.tools import *\nfrom auth import CustomAuthentication\n#########################################################################\n## This scaffolding model makes your app work on Google App Engine too\n## File is released under public domain and you can use without limitations\n#########################################################################\n\n## if SSL/HTTPS is properly configured and you want all HTTP requests to\n## be redirected to HTTPS, uncomment the line below:\n# request.requires_https()\n\ndb = DAL('sqlite://storage.sqlite')\n\n## by default give a view/generic.extension to all actions from localhost\n## none otherwise. a pattern can be 'controller/function.extension'\nresponse.generic_patterns = ['*'] if request.is_local else []\n## (optional) optimize handling of static files\n# response.optimize_css = 'concat,minify,inline'\n# response.optimize_js = 'concat,minify,inline'\n\n#########################################################################\n## Here is sample code if you need for\n## - email capabilities\n## - authentication (registration, login, logout, ... )\n## - authorization (role based authorization)\n## - services (xml, csv, json, xmlrpc, jsonrpc, amf, rss)\n## - old style crud actions\n## (more options discussed in gluon/tools.py)\n#########################################################################\n\nfrom gluon.tools import Auth, Crud, Service, PluginManager, prettydate\nauth = Auth(db, hmac_key=Auth.get_or_create_key())\ncrud, service, plugins = Crud(db), Service(), PluginManager()\n\n## create all tables needed by auth if not custom tables\n\ndb.define_table(auth.settings.table_user_name,\n    Field('nombre', length=128, default=''),\n    Field('apellido', length=128, default=''),\n    Field('username','string', unique=True, label='Nombre de usuario'),\n    Field('email', length=128, default='' ), # required\n    Field('password', 'password', length=512, readable=False, label='Password'),\n    Field('address'),\n    Field('city'),\n    Field('zip'),\n    Field('phone'),\n    Field('registration_key', length=512, writable=False, readable=False, default=''),\n    Field('reset_password_key', length=512, writable=False, readable=False, default=''),\n    Field('registration_id', length=512, writable=False, readable=False, default=''))\n\n## do not forget validators\ncustom_auth_table = db[auth.settings.table_user_name] # get the custom_auth_table\ncustom_auth_table.first_name.requires = IS_NOT_EMPTY(error_message=auth.messages.is_empty)\ncustom_auth_table.last_name.requires = IS_NOT_EMPTY(error_message=auth.messages.is_empty)\ncustom_auth_table.password.requires = [IS_STRONG(), CRYPT()]\ncustom_auth_table.email.requires = [ IS_EMAIL(error_message=auth.messages.invalid_email), IS_NOT_IN_DB(db, custom_auth_table.email)]\nauth.settings.table_user = custom_auth_table # tell auth to use custom_auth_table\n\n## before auth.define_tables()\n\n\n\nauth.define_tables()\n\n## configure email\nmail=auth.settings.mailer\nmail.settings.server = 'logging' or 'smtp.gmail.com:587'\nmail.settings.sender = 'you@gmail.com'\nmail.settings.login = 'username:password'\n\n## configure auth policy\nauth.settings.registration_requires_verification = False\nauth.settings.registration_requires_approval = False\nauth.settings.reset_password_requires_verification = True\n\n## if you need to use OpenID, Facebook, MySpace, Twitter, Linkedin, etc.\n## register with janrain.com, write your domain:api_key in private/janrain.key\nfrom gluon.contrib.login_methods.rpx_account import use_janrain\nuse_janrain(auth,filename='private/janrain.key')\n\n#########################################################################\n## Define your tables below (or better in another model file) for example\n##\n## >>> db.define_table('mytable',Field('myfield','string'))\n##\n## Fields can be 'string','text','password','integer','double','boolean'\n##       'date','time','datetime','blob','upload', 'reference TABLENAME'\n## There is an implicit 'id integer autoincrement' field\n## Consult manual for more options, validators, etc.\n##\n## More API examples for controllers:\n##\n## >>> db.mytable.insert(myfield='value')\n## >>> rows=db(db.mytable.myfield=='value').select(db.mytable.ALL)\n## >>> for row in rows: print row.id, row.myfield\n#########################################################################\n\n\n"
p7
sS'snapshot'
p8
(dp9
S'exception'
p10
(dp11
S'__module__'
p12
S"'sqlite3'"
p13
sS'__getslice__'
p14
S"<method-wrapper '__getslice__' of OperationalError object>"
p15
sS'__str__'
p16
S"<method-wrapper '__str__' of OperationalError object>"
p17
sS'__reduce__'
p18
S'<built-in method __reduce__ of OperationalError object>'
p19
sS'__dict__'
p20
S'{}'
p21
sS'__sizeof__'
p22
S'<built-in method __sizeof__ of OperationalError object>'
p23
sS'__weakref__'
p24
S'None'
p25
sS'__init__'
p26
S"<method-wrapper '__init__' of OperationalError object>"
p27
sS'__setattr__'
p28
S"<method-wrapper '__setattr__' of OperationalError object>"
p29
sS'__reduce_ex__'
p30
S'<built-in method __reduce_ex__ of OperationalError object>'
p31
sS'__new__'
p32
S'<built-in method __new__ of type object>'
p33
sS'__format__'
p34
S'<built-in method __format__ of OperationalError object>'
p35
sS'__class__'
p36
S"<class 'sqlite3.OperationalError'>"
p37
sS'__doc__'
p38
S'None'
p39
sS'__getitem__'
p40
S"<method-wrapper '__getitem__' of OperationalError object>"
p41
sS'__setstate__'
p42
S'<built-in method __setstate__ of OperationalError object>'
p43
sS'__getattribute__'
p44
S"<method-wrapper '__getattribute__' of OperationalError object>"
p45
sS'args'
p46
S"('Cannot add a UNIQUE column',)"
p47
sS'__subclasshook__'
p48
S'<built-in method __subclasshook__ of type object>'
p49
sS'__unicode__'
p50
S'<built-in method __unicode__ of OperationalError object>'
p51
sS'__delattr__'
p52
S"<method-wrapper '__delattr__' of OperationalError object>"
p53
sS'__repr__'
p54
S"<method-wrapper '__repr__' of OperationalError object>"
p55
sS'__hash__'
p56
S"<method-wrapper '__hash__' of OperationalError object>"
p57
ssS'evalue'
p58
S'Cannot add a UNIQUE column'
p59
sS'request'
p60
ccopy_reg
_reconstructor
p61
(cgluon.html
BEAUTIFY
p62
c__builtin__
object
p63
NtRp64
(dp65
S'attributes'
p66
(dp67
sS'components'
p68
(lp69
g61
(cgluon.html
TABLE
p70
g63
NtRp71
(dp72
g66
(dp73
S'level'
p74
I5
ssS'parent'
p75
Nsg68
(lp76
g61
(cgluon.html
TR
p77
g63
NtRp78
(dp79
g66
(dp80
sg75
g71
sg68
(lp81
g61
(cgluon.html
TD
p82
g63
NtRp83
(dp84
g66
(dp85
S'_style'
p86
S'font-weight:bold;vertical-align:top'
p87
ssg75
g78
sg68
(lp88
S'ajax'
p89
asbag61
(g82
g63
NtRp90
(dp91
g66
(dp92
S'_valign'
p93
S'top'
p94
ssg75
g78
sg68
(lp95
S':'
asbag61
(g82
g63
NtRp96
(dp97
g66
(dp98
sg75
g78
sg68
(lp99
g61
(g62
g63
NtRp100
(dp101
g66
(dp102
g74
I5
ssg75
g96
sg68
(lp103
S'False'
p104
asbasbasbag61
(g77
g63
NtRp105
(dp106
g66
(dp107
sg75
g71
sg68
(lp108
g61
(g82
g63
NtRp109
(dp110
g66
(dp111
g86
g87
ssg75
g105
sg68
(lp112
S'application'
p113
asbag61
(g82
g63
NtRp114
(dp115
g66
(dp116
g93
g94
ssg75
g105
sg68
(lp117
S':'
asbag61
(g82
g63
NtRp118
(dp119
g66
(dp120
sg75
g105
sg68
(lp121
g61
(g62
g63
NtRp122
(dp123
g66
(dp124
g74
I5
ssg75
g118
sg68
(lp125
S'woppi'
p126
asbasbasbag61
(g77
g63
NtRp127
(dp128
g66
(dp129
sg75
g71
sg68
(lp130
g61
(g82
g63
NtRp131
(dp132
g66
(dp133
g86
g87
ssg75
g127
sg68
(lp134
g46
asbag61
(g82
g63
NtRp135
(dp136
g66
(dp137
g93
g94
ssg75
g127
sg68
(lp138
S':'
asbag61
(g82
g63
NtRp139
(dp140
g66
(dp141
sg75
g127
sg68
(lp142
g61
(g62
g63
NtRp143
(dp144
g66
(dp145
g74
I5
ssg75
g139
sg68
(lp146
g61
(g70
g63
NtRp147
(dp148
g66
(dp149
g74
I4
ssg75
Nsg68
(lp150
g61
(g77
g63
NtRp151
(dp152
g66
(dp153
sg75
g147
sg68
(lp154
g61
(g82
g63
NtRp155
(dp156
g66
(dp157
sg75
g151
sg68
(lp158
g61
(g62
g63
NtRp159
(dp160
g66
(dp161
g74
I4
ssg75
g155
sg68
(lp162
S'register'
p163
asbasbasbasbasbasbasbag61
(g77
g63
NtRp164
(dp165
g66
(dp166
sg75
g71
sg68
(lp167
g61
(g82
g63
NtRp168
(dp169
g66
(dp170
g86
g87
ssg75
g164
sg68
(lp171
S'body'
p172
asbag61
(g82
g63
NtRp173
(dp174
g66
(dp175
g93
g94
ssg75
g164
sg68
(lp176
S':'
asbag61
(g82
g63
NtRp177
(dp178
g66
(dp179
sg75
g164
sg68
(lp180
g61
(g62
g63
NtRp181
(dp182
g66
(dp183
g74
I5
ssg75
g177
sg68
(lp184
S'<cStringIO.StringO object at 0x394aa78>'
p185
asbasbasbag61
(g77
g63
NtRp186
(dp187
g66
(dp188
sg75
g71
sg68
(lp189
g61
(g82
g63
NtRp190
(dp191
g66
(dp192
g86
g87
ssg75
g186
sg68
(lp193
S'client'
p194
asbag61
(g82
g63
NtRp195
(dp196
g66
(dp197
g93
g94
ssg75
g186
sg68
(lp198
S':'
asbag61
(g82
g63
NtRp199
(dp200
g66
(dp201
sg75
g186
sg68
(lp202
g61
(g62
g63
NtRp203
(dp204
g66
(dp205
g74
I5
ssg75
g199
sg68
(lp206
S'127.0.0.1'
p207
asbasbasbag61
(g77
g63
NtRp208
(dp209
g66
(dp210
sg75
g71
sg68
(lp211
g61
(g82
g63
NtRp212
(dp213
g66
(dp214
g86
g87
ssg75
g208
sg68
(lp215
S'controller'
p216
asbag61
(g82
g63
NtRp217
(dp218
g66
(dp219
g93
g94
ssg75
g208
sg68
(lp220
S':'
asbag61
(g82
g63
NtRp221
(dp222
g66
(dp223
sg75
g208
sg68
(lp224
g61
(g62
g63
NtRp225
(dp226
g66
(dp227
g74
I5
ssg75
g221
sg68
(lp228
S'default'
p229
asbasbasbag61
(g77
g63
NtRp230
(dp231
g66
(dp232
sg75
g71
sg68
(lp233
g61
(g82
g63
NtRp234
(dp235
g66
(dp236
g86
g87
ssg75
g230
sg68
(lp237
S'cookies'
p238
asbag61
(g82
g63
NtRp239
(dp240
g66
(dp241
g93
g94
ssg75
g230
sg68
(lp242
S':'
asbag61
(g82
g63
NtRp243
(dp244
g66
(dp245
sg75
g230
sg68
(lp246
g61
(g62
g63
NtRp247
(dp248
g66
(dp249
g74
I5
ssg75
g243
sg68
(lp250
g61
(g70
g63
NtRp251
(dp252
g66
(dp253
g74
I4
ssg75
Nsg68
(lp254
g61
(g77
g63
NtRp255
(dp256
g66
(dp257
sg75
g251
sg68
(lp258
g61
(g82
g63
NtRp259
(dp260
g66
(dp261
g86
g87
ssg75
g255
sg68
(lp262
S'session_id_admin'
p263
asbag61
(g82
g63
NtRp264
(dp265
g66
(dp266
g93
g94
ssg75
g255
sg68
(lp267
S':'
asbag61
(g82
g63
NtRp268
(dp269
g66
(dp270
sg75
g255
sg68
(lp271
g61
(g62
g63
NtRp272
(dp273
g66
(dp274
g74
I4
ssg75
g268
sg68
(lp275
g61
(g70
g63
NtRp276
(dp277
g66
(dp278
g74
I3
ssg75
Nsg68
(lp279
g61
(g77
g63
NtRp280
(dp281
g66
(dp282
sg75
g276
sg68
(lp283
g61
(g82
g63
NtRp284
(dp285
g66
(dp286
g86
g87
ssg75
g280
sg68
(lp287
S'comment'
p288
asbag61
(g82
g63
NtRp289
(dp290
g66
(dp291
g93
g94
ssg75
g280
sg68
(lp292
S':'
asbag61
(g82
g63
NtRp293
(dp294
g66
(dp295
sg75
g280
sg68
(lp296
g61
(g62
g63
NtRp297
(dp298
g66
(dp299
g74
I3
ssg75
g293
sg68
(lp300
S''
asbasbasbag61
(g77
g63
NtRp301
(dp302
g66
(dp303
sg75
g276
sg68
(lp304
g61
(g82
g63
NtRp305
(dp306
g66
(dp307
g86
g87
ssg75
g301
sg68
(lp308
S'domain'
p309
asbag61
(g82
g63
NtRp310
(dp311
g66
(dp312
g93
g94
ssg75
g301
sg68
(lp313
S':'
asbag61
(g82
g63
NtRp314
(dp315
g66
(dp316
sg75
g301
sg68
(lp317
g61
(g62
g63
NtRp318
(dp319
g66
(dp320
g74
I3
ssg75
g314
sg68
(lp321
S''
asbasbasbag61
(g77
g63
NtRp322
(dp323
g66
(dp324
sg75
g276
sg68
(lp325
g61
(g82
g63
NtRp326
(dp327
g66
(dp328
g86
g87
ssg75
g322
sg68
(lp329
S'expires'
p330
asbag61
(g82
g63
NtRp331
(dp332
g66
(dp333
g93
g94
ssg75
g322
sg68
(lp334
S':'
asbag61
(g82
g63
NtRp335
(dp336
g66
(dp337
sg75
g322
sg68
(lp338
g61
(g62
g63
NtRp339
(dp340
g66
(dp341
g74
I3
ssg75
g335
sg68
(lp342
S''
asbasbasbag61
(g77
g63
NtRp343
(dp344
g66
(dp345
sg75
g276
sg68
(lp346
g61
(g82
g63
NtRp347
(dp348
g66
(dp349
g86
g87
ssg75
g343
sg68
(lp350
S'httponly'
p351
asbag61
(g82
g63
NtRp352
(dp353
g66
(dp354
g93
g94
ssg75
g343
sg68
(lp355
S':'
asbag61
(g82
g63
NtRp356
(dp357
g66
(dp358
sg75
g343
sg68
(lp359
g61
(g62
g63
NtRp360
(dp361
g66
(dp362
g74
I3
ssg75
g356
sg68
(lp363
S''
asbasbasbag61
(g77
g63
NtRp364
(dp365
g66
(dp366
sg75
g276
sg68
(lp367
g61
(g82
g63
NtRp368
(dp369
g66
(dp370
g86
g87
ssg75
g364
sg68
(lp371
S'max-age'
p372
asbag61
(g82
g63
NtRp373
(dp374
g66
(dp375
g93
g94
ssg75
g364
sg68
(lp376
S':'
asbag61
(g82
g63
NtRp377
(dp378
g66
(dp379
sg75
g364
sg68
(lp380
g61
(g62
g63
NtRp381
(dp382
g66
(dp383
g74
I3
ssg75
g377
sg68
(lp384
S''
asbasbasbag61
(g77
g63
NtRp385
(dp386
g66
(dp387
sg75
g276
sg68
(lp388
g61
(g82
g63
NtRp389
(dp390
g66
(dp391
g86
g87
ssg75
g385
sg68
(lp392
S'path'
p393
asbag61
(g82
g63
NtRp394
(dp395
g66
(dp396
g93
g94
ssg75
g385
sg68
(lp397
S':'
asbag61
(g82
g63
NtRp398
(dp399
g66
(dp400
sg75
g385
sg68
(lp401
g61
(g62
g63
NtRp402
(dp403
g66
(dp404
g74
I3
ssg75
g398
sg68
(lp405
S''
asbasbasbag61
(g77
g63
NtRp406
(dp407
g66
(dp408
sg75
g276
sg68
(lp409
g61
(g82
g63
NtRp410
(dp411
g66
(dp412
g86
g87
ssg75
g406
sg68
(lp413
S'secure'
p414
asbag61
(g82
g63
NtRp415
(dp416
g66
(dp417
g93
g94
ssg75
g406
sg68
(lp418
S':'
asbag61
(g82
g63
NtRp419
(dp420
g66
(dp421
sg75
g406
sg68
(lp422
g61
(g62
g63
NtRp423
(dp424
g66
(dp425
g74
I3
ssg75
g419
sg68
(lp426
S''
asbasbasbag61
(g77
g63
NtRp427
(dp428
g66
(dp429
sg75
g276
sg68
(lp430
g61
(g82
g63
NtRp431
(dp432
g66
(dp433
g86
g87
ssg75
g427
sg68
(lp434
S'version'
p435
asbag61
(g82
g63
NtRp436
(dp437
g66
(dp438
g93
g94
ssg75
g427
sg68
(lp439
S':'
asbag61
(g82
g63
NtRp440
(dp441
g66
(dp442
sg75
g427
sg68
(lp443
g61
(g62
g63
NtRp444
(dp445
g66
(dp446
g74
I3
ssg75
g440
sg68
(lp447
S''
asbasbasbasbasbasbasbag61
(g77
g63
NtRp448
(dp449
g66
(dp450
sg75
g251
sg68
(lp451
g61
(g82
g63
NtRp452
(dp453
g66
(dp454
g86
g87
ssg75
g448
sg68
(lp455
S'session_id_cms2py'
p456
asbag61
(g82
g63
NtRp457
(dp458
g66
(dp459
g93
g94
ssg75
g448
sg68
(lp460
S':'
asbag61
(g82
g63
NtRp461
(dp462
g66
(dp463
sg75
g448
sg68
(lp464
g61
(g62
g63
NtRp465
(dp466
g66
(dp467
g74
I4
ssg75
g461
sg68
(lp468
g61
(g70
g63
NtRp469
(dp470
g66
(dp471
g74
I3
ssg75
Nsg68
(lp472
g61
(g77
g63
NtRp473
(dp474
g66
(dp475
sg75
g469
sg68
(lp476
g61
(g82
g63
NtRp477
(dp478
g66
(dp479
g86
g87
ssg75
g473
sg68
(lp480
g288
asbag61
(g82
g63
NtRp481
(dp482
g66
(dp483
g93
g94
ssg75
g473
sg68
(lp484
S':'
asbag61
(g82
g63
NtRp485
(dp486
g66
(dp487
sg75
g473
sg68
(lp488
g61
(g62
g63
NtRp489
(dp490
g66
(dp491
g74
I3
ssg75
g485
sg68
(lp492
S''
asbasbasbag61
(g77
g63
NtRp493
(dp494
g66
(dp495
sg75
g469
sg68
(lp496
g61
(g82
g63
NtRp497
(dp498
g66
(dp499
g86
g87
ssg75
g493
sg68
(lp500
g309
asbag61
(g82
g63
NtRp501
(dp502
g66
(dp503
g93
g94
ssg75
g493
sg68
(lp504
S':'
asbag61
(g82
g63
NtRp505
(dp506
g66
(dp507
sg75
g493
sg68
(lp508
g61
(g62
g63
NtRp509
(dp510
g66
(dp511
g74
I3
ssg75
g505
sg68
(lp512
S''
asbasbasbag61
(g77
g63
NtRp513
(dp514
g66
(dp515
sg75
g469
sg68
(lp516
g61
(g82
g63
NtRp517
(dp518
g66
(dp519
g86
g87
ssg75
g513
sg68
(lp520
g330
asbag61
(g82
g63
NtRp521
(dp522
g66
(dp523
g93
g94
ssg75
g513
sg68
(lp524
S':'
asbag61
(g82
g63
NtRp525
(dp526
g66
(dp527
sg75
g513
sg68
(lp528
g61
(g62
g63
NtRp529
(dp530
g66
(dp531
g74
I3
ssg75
g525
sg68
(lp532
S''
asbasbasbag61
(g77
g63
NtRp533
(dp534
g66
(dp535
sg75
g469
sg68
(lp536
g61
(g82
g63
NtRp537
(dp538
g66
(dp539
g86
g87
ssg75
g533
sg68
(lp540
g351
asbag61
(g82
g63
NtRp541
(dp542
g66
(dp543
g93
g94
ssg75
g533
sg68
(lp544
S':'
asbag61
(g82
g63
NtRp545
(dp546
g66
(dp547
sg75
g533
sg68
(lp548
g61
(g62
g63
NtRp549
(dp550
g66
(dp551
g74
I3
ssg75
g545
sg68
(lp552
S''
asbasbasbag61
(g77
g63
NtRp553
(dp554
g66
(dp555
sg75
g469
sg68
(lp556
g61
(g82
g63
NtRp557
(dp558
g66
(dp559
g86
g87
ssg75
g553
sg68
(lp560
g372
asbag61
(g82
g63
NtRp561
(dp562
g66
(dp563
g93
g94
ssg75
g553
sg68
(lp564
S':'
asbag61
(g82
g63
NtRp565
(dp566
g66
(dp567
sg75
g553
sg68
(lp568
g61
(g62
g63
NtRp569
(dp570
g66
(dp571
g74
I3
ssg75
g565
sg68
(lp572
S''
asbasbasbag61
(g77
g63
NtRp573
(dp574
g66
(dp575
sg75
g469
sg68
(lp576
g61
(g82
g63
NtRp577
(dp578
g66
(dp579
g86
g87
ssg75
g573
sg68
(lp580
g393
asbag61
(g82
g63
NtRp581
(dp582
g66
(dp583
g93
g94
ssg75
g573
sg68
(lp584
S':'
asbag61
(g82
g63
NtRp585
(dp586
g66
(dp587
sg75
g573
sg68
(lp588
g61
(g62
g63
NtRp589
(dp590
g66
(dp591
g74
I3
ssg75
g585
sg68
(lp592
S''
asbasbasbag61
(g77
g63
NtRp593
(dp594
g66
(dp595
sg75
g469
sg68
(lp596
g61
(g82
g63
NtRp597
(dp598
g66
(dp599
g86
g87
ssg75
g593
sg68
(lp600
g414
asbag61
(g82
g63
NtRp601
(dp602
g66
(dp603
g93
g94
ssg75
g593
sg68
(lp604
S':'
asbag61
(g82
g63
NtRp605
(dp606
g66
(dp607
sg75
g593
sg68
(lp608
g61
(g62
g63
NtRp609
(dp610
g66
(dp611
g74
I3
ssg75
g605
sg68
(lp612
S''
asbasbasbag61
(g77
g63
NtRp613
(dp614
g66
(dp615
sg75
g469
sg68
(lp616
g61
(g82
g63
NtRp617
(dp618
g66
(dp619
g86
g87
ssg75
g613
sg68
(lp620
g435
asbag61
(g82
g63
NtRp621
(dp622
g66
(dp623
g93
g94
ssg75
g613
sg68
(lp624
S':'
asbag61
(g82
g63
NtRp625
(dp626
g66
(dp627
sg75
g613
sg68
(lp628
g61
(g62
g63
NtRp629
(dp630
g66
(dp631
g74
I3
ssg75
g625
sg68
(lp632
S''
asbasbasbasbasbasbasbag61
(g77
g63
NtRp633
(dp634
g66
(dp635
sg75
g251
sg68
(lp636
g61
(g82
g63
NtRp637
(dp638
g66
(dp639
g86
g87
ssg75
g633
sg68
(lp640
S'session_id_pyforum2'
p641
asbag61
(g82
g63
NtRp642
(dp643
g66
(dp644
g93
g94
ssg75
g633
sg68
(lp645
S':'
asbag61
(g82
g63
NtRp646
(dp647
g66
(dp648
sg75
g633
sg68
(lp649
g61
(g62
g63
NtRp650
(dp651
g66
(dp652
g74
I4
ssg75
g646
sg68
(lp653
g61
(g70
g63
NtRp654
(dp655
g66
(dp656
g74
I3
ssg75
Nsg68
(lp657
g61
(g77
g63
NtRp658
(dp659
g66
(dp660
sg75
g654
sg68
(lp661
g61
(g82
g63
NtRp662
(dp663
g66
(dp664
g86
g87
ssg75
g658
sg68
(lp665
g288
asbag61
(g82
g63
NtRp666
(dp667
g66
(dp668
g93
g94
ssg75
g658
sg68
(lp669
S':'
asbag61
(g82
g63
NtRp670
(dp671
g66
(dp672
sg75
g658
sg68
(lp673
g61
(g62
g63
NtRp674
(dp675
g66
(dp676
g74
I3
ssg75
g670
sg68
(lp677
S''
asbasbasbag61
(g77
g63
NtRp678
(dp679
g66
(dp680
sg75
g654
sg68
(lp681
g61
(g82
g63
NtRp682
(dp683
g66
(dp684
g86
g87
ssg75
g678
sg68
(lp685
g309
asbag61
(g82
g63
NtRp686
(dp687
g66
(dp688
g93
g94
ssg75
g678
sg68
(lp689
S':'
asbag61
(g82
g63
NtRp690
(dp691
g66
(dp692
sg75
g678
sg68
(lp693
g61
(g62
g63
NtRp694
(dp695
g66
(dp696
g74
I3
ssg75
g690
sg68
(lp697
S''
asbasbasbag61
(g77
g63
NtRp698
(dp699
g66
(dp700
sg75
g654
sg68
(lp701
g61
(g82
g63
NtRp702
(dp703
g66
(dp704
g86
g87
ssg75
g698
sg68
(lp705
g330
asbag61
(g82
g63
NtRp706
(dp707
g66
(dp708
g93
g94
ssg75
g698
sg68
(lp709
S':'
asbag61
(g82
g63
NtRp710
(dp711
g66
(dp712
sg75
g698
sg68
(lp713
g61
(g62
g63
NtRp714
(dp715
g66
(dp716
g74
I3
ssg75
g710
sg68
(lp717
S''
asbasbasbag61
(g77
g63
NtRp718
(dp719
g66
(dp720
sg75
g654
sg68
(lp721
g61
(g82
g63
NtRp722
(dp723
g66
(dp724
g86
g87
ssg75
g718
sg68
(lp725
g351
asbag61
(g82
g63
NtRp726
(dp727
g66
(dp728
g93
g94
ssg75
g718
sg68
(lp729
S':'
asbag61
(g82
g63
NtRp730
(dp731
g66
(dp732
sg75
g718
sg68
(lp733
g61
(g62
g63
NtRp734
(dp735
g66
(dp736
g74
I3
ssg75
g730
sg68
(lp737
S''
asbasbasbag61
(g77
g63
NtRp738
(dp739
g66
(dp740
sg75
g654
sg68
(lp741
g61
(g82
g63
NtRp742
(dp743
g66
(dp744
g86
g87
ssg75
g738
sg68
(lp745
g372
asbag61
(g82
g63
NtRp746
(dp747
g66
(dp748
g93
g94
ssg75
g738
sg68
(lp749
S':'
asbag61
(g82
g63
NtRp750
(dp751
g66
(dp752
sg75
g738
sg68
(lp753
g61
(g62
g63
NtRp754
(dp755
g66
(dp756
g74
I3
ssg75
g750
sg68
(lp757
S''
asbasbasbag61
(g77
g63
NtRp758
(dp759
g66
(dp760
sg75
g654
sg68
(lp761
g61
(g82
g63
NtRp762
(dp763
g66
(dp764
g86
g87
ssg75
g758
sg68
(lp765
g393
asbag61
(g82
g63
NtRp766
(dp767
g66
(dp768
g93
g94
ssg75
g758
sg68
(lp769
S':'
asbag61
(g82
g63
NtRp770
(dp771
g66
(dp772
sg75
g758
sg68
(lp773
g61
(g62
g63
NtRp774
(dp775
g66
(dp776
g74
I3
ssg75
g770
sg68
(lp777
S''
asbasbasbag61
(g77
g63
NtRp778
(dp779
g66
(dp780
sg75
g654
sg68
(lp781
g61
(g82
g63
NtRp782
(dp783
g66
(dp784
g86
g87
ssg75
g778
sg68
(lp785
g414
asbag61
(g82
g63
NtRp786
(dp787
g66
(dp788
g93
g94
ssg75
g778
sg68
(lp789
S':'
asbag61
(g82
g63
NtRp790
(dp791
g66
(dp792
sg75
g778
sg68
(lp793
g61
(g62
g63
NtRp794
(dp795
g66
(dp796
g74
I3
ssg75
g790
sg68
(lp797
S''
asbasbasbag61
(g77
g63
NtRp798
(dp799
g66
(dp800
sg75
g654
sg68
(lp801
g61
(g82
g63
NtRp802
(dp803
g66
(dp804
g86
g87
ssg75
g798
sg68
(lp805
g435
asbag61
(g82
g63
NtRp806
(dp807
g66
(dp808
g93
g94
ssg75
g798
sg68
(lp809
S':'
asbag61
(g82
g63
NtRp810
(dp811
g66
(dp812
sg75
g798
sg68
(lp813
g61
(g62
g63
NtRp814
(dp815
g66
(dp816
g74
I3
ssg75
g810
sg68
(lp817
S''
asbasbasbasbasbasbasbag61
(g77
g63
NtRp818
(dp819
g66
(dp820
sg75
g251
sg68
(lp821
g61
(g82
g63
NtRp822
(dp823
g66
(dp824
g86
g87
ssg75
g818
sg68
(lp825
S'session_id_woppi'
p826
asbag61
(g82
g63
NtRp827
(dp828
g66
(dp829
g93
g94
ssg75
g818
sg68
(lp830
S':'
asbag61
(g82
g63
NtRp831
(dp832
g66
(dp833
sg75
g818
sg68
(lp834
g61
(g62
g63
NtRp835
(dp836
g66
(dp837
g74
I4
ssg75
g831
sg68
(lp838
g61
(g70
g63
NtRp839
(dp840
g66
(dp841
g74
I3
ssg75
Nsg68
(lp842
g61
(g77
g63
NtRp843
(dp844
g66
(dp845
sg75
g839
sg68
(lp846
g61
(g82
g63
NtRp847
(dp848
g66
(dp849
g86
g87
ssg75
g843
sg68
(lp850
g288
asbag61
(g82
g63
NtRp851
(dp852
g66
(dp853
g93
g94
ssg75
g843
sg68
(lp854
S':'
asbag61
(g82
g63
NtRp855
(dp856
g66
(dp857
sg75
g843
sg68
(lp858
g61
(g62
g63
NtRp859
(dp860
g66
(dp861
g74
I3
ssg75
g855
sg68
(lp862
S''
asbasbasbag61
(g77
g63
NtRp863
(dp864
g66
(dp865
sg75
g839
sg68
(lp866
g61
(g82
g63
NtRp867
(dp868
g66
(dp869
g86
g87
ssg75
g863
sg68
(lp870
g309
asbag61
(g82
g63
NtRp871
(dp872
g66
(dp873
g93
g94
ssg75
g863
sg68
(lp874
S':'
asbag61
(g82
g63
NtRp875
(dp876
g66
(dp877
sg75
g863
sg68
(lp878
g61
(g62
g63
NtRp879
(dp880
g66
(dp881
g74
I3
ssg75
g875
sg68
(lp882
S''
asbasbasbag61
(g77
g63
NtRp883
(dp884
g66
(dp885
sg75
g839
sg68
(lp886
g61
(g82
g63
NtRp887
(dp888
g66
(dp889
g86
g87
ssg75
g883
sg68
(lp890
g330
asbag61
(g82
g63
NtRp891
(dp892
g66
(dp893
g93
g94
ssg75
g883
sg68
(lp894
S':'
asbag61
(g82
g63
NtRp895
(dp896
g66
(dp897
sg75
g883
sg68
(lp898
g61
(g62
g63
NtRp899
(dp900
g66
(dp901
g74
I3
ssg75
g895
sg68
(lp902
S''
asbasbasbag61
(g77
g63
NtRp903
(dp904
g66
(dp905
sg75
g839
sg68
(lp906
g61
(g82
g63
NtRp907
(dp908
g66
(dp909
g86
g87
ssg75
g903
sg68
(lp910
g351
asbag61
(g82
g63
NtRp911
(dp912
g66
(dp913
g93
g94
ssg75
g903
sg68
(lp914
S':'
asbag61
(g82
g63
NtRp915
(dp916
g66
(dp917
sg75
g903
sg68
(lp918
g61
(g62
g63
NtRp919
(dp920
g66
(dp921
g74
I3
ssg75
g915
sg68
(lp922
S''
asbasbasbag61
(g77
g63
NtRp923
(dp924
g66
(dp925
sg75
g839
sg68
(lp926
g61
(g82
g63
NtRp927
(dp928
g66
(dp929
g86
g87
ssg75
g923
sg68
(lp930
g372
asbag61
(g82
g63
NtRp931
(dp932
g66
(dp933
g93
g94
ssg75
g923
sg68
(lp934
S':'
asbag61
(g82
g63
NtRp935
(dp936
g66
(dp937
sg75
g923
sg68
(lp938
g61
(g62
g63
NtRp939
(dp940
g66
(dp941
g74
I3
ssg75
g935
sg68
(lp942
S''
asbasbasbag61
(g77
g63
NtRp943
(dp944
g66
(dp945
sg75
g839
sg68
(lp946
g61
(g82
g63
NtRp947
(dp948
g66
(dp949
g86
g87
ssg75
g943
sg68
(lp950
g393
asbag61
(g82
g63
NtRp951
(dp952
g66
(dp953
g93
g94
ssg75
g943
sg68
(lp954
S':'
asbag61
(g82
g63
NtRp955
(dp956
g66
(dp957
sg75
g943
sg68
(lp958
g61
(g62
g63
NtRp959
(dp960
g66
(dp961
g74
I3
ssg75
g955
sg68
(lp962
S''
asbasbasbag61
(g77
g63
NtRp963
(dp964
g66
(dp965
sg75
g839
sg68
(lp966
g61
(g82
g63
NtRp967
(dp968
g66
(dp969
g86
g87
ssg75
g963
sg68
(lp970
g414
asbag61
(g82
g63
NtRp971
(dp972
g66
(dp973
g93
g94
ssg75
g963
sg68
(lp974
S':'
asbag61
(g82
g63
NtRp975
(dp976
g66
(dp977
sg75
g963
sg68
(lp978
g61
(g62
g63
NtRp979
(dp980
g66
(dp981
g74
I3
ssg75
g975
sg68
(lp982
S''
asbasbasbag61
(g77
g63
NtRp983
(dp984
g66
(dp985
sg75
g839
sg68
(lp986
g61
(g82
g63
NtRp987
(dp988
g66
(dp989
g86
g87
ssg75
g983
sg68
(lp990
g435
asbag61
(g82
g63
NtRp991
(dp992
g66
(dp993
g93
g94
ssg75
g983
sg68
(lp994
S':'
asbag61
(g82
g63
NtRp995
(dp996
g66
(dp997
sg75
g983
sg68
(lp998
g61
(g62
g63
NtRp999
(dp1000
g66
(dp1001
g74
I3
ssg75
g995
sg68
(lp1002
S''
asbasbasbasbasbasbasbasbasbasbasbag61
(g77
g63
NtRp1003
(dp1004
g66
(dp1005
sg75
g71
sg68
(lp1006
g61
(g82
g63
NtRp1007
(dp1008
g66
(dp1009
g86
g87
ssg75
g1003
sg68
(lp1010
S'env'
p1011
asbag61
(g82
g63
NtRp1012
(dp1013
g66
(dp1014
g93
g94
ssg75
g1003
sg68
(lp1015
S':'
asbag61
(g82
g63
NtRp1016
(dp1017
g66
(dp1018
sg75
g1003
sg68
(lp1019
g61
(g62
g63
NtRp1020
(dp1021
g66
(dp1022
g74
I5
ssg75
g1016
sg68
(lp1023
g61
(g70
g63
NtRp1024
(dp1025
g66
(dp1026
g74
I4
ssg75
Nsg68
(lp1027
g61
(g77
g63
NtRp1028
(dp1029
g66
(dp1030
sg75
g1024
sg68
(lp1031
g61
(g82
g63
NtRp1032
(dp1033
g66
(dp1034
g86
g87
ssg75
g1028
sg68
(lp1035
S'app_folders'
p1036
asbag61
(g82
g63
NtRp1037
(dp1038
g66
(dp1039
g93
g94
ssg75
g1028
sg68
(lp1040
S':'
asbag61
(g82
g63
NtRp1041
(dp1042
g66
(dp1043
sg75
g1028
sg68
(lp1044
g61
(g62
g63
NtRp1045
(dp1046
g66
(dp1047
g74
I4
ssg75
g1041
sg68
(lp1048
S"set(['/home/marco/projects/final/web2py/applications/woppi/', '/home/marco/projects/final/web2py/applications/admin/'])"
p1049
asbasbasbag61
(g77
g63
NtRp1050
(dp1051
g66
(dp1052
sg75
g1024
sg68
(lp1053
g61
(g82
g63
NtRp1054
(dp1055
g66
(dp1056
g86
g87
ssg75
g1050
sg68
(lp1057
S'applications_parent'
p1058
asbag61
(g82
g63
NtRp1059
(dp1060
g66
(dp1061
g93
g94
ssg75
g1050
sg68
(lp1062
S':'
asbag61
(g82
g63
NtRp1063
(dp1064
g66
(dp1065
sg75
g1050
sg68
(lp1066
g61
(g62
g63
NtRp1067
(dp1068
g66
(dp1069
g74
I4
ssg75
g1063
sg68
(lp1070
S'/home/marco/projects/final/web2py'
p1071
asbasbasbag61
(g77
g63
NtRp1072
(dp1073
g66
(dp1074
sg75
g1024
sg68
(lp1075
g61
(g82
g63
NtRp1076
(dp1077
g66
(dp1078
g86
g87
ssg75
g1072
sg68
(lp1079
S'cmd_args'
p1080
asbag61
(g82
g63
NtRp1081
(dp1082
g66
(dp1083
g93
g94
ssg75
g1072
sg68
(lp1084
S':'
asbag61
(g82
g63
NtRp1085
(dp1086
g66
(dp1087
sg75
g1072
sg68
(lp1088
g61
(g62
g63
NtRp1089
(dp1090
g66
(dp1091
g74
I4
ssg75
g1085
sg68
(lp1092
g61
(g70
g63
NtRp1093
(dp1094
g66
(dp1095
g74
I3
ssg75
Nsg68
(lp1096
sbasbasbasbag61
(g77
g63
NtRp1097
(dp1098
g66
(dp1099
sg75
g1024
sg68
(lp1100
g61
(g82
g63
NtRp1101
(dp1102
g66
(dp1103
g86
g87
ssg75
g1097
sg68
(lp1104
S'cmd_options'
p1105
asbag61
(g82
g63
NtRp1106
(dp1107
g66
(dp1108
g93
g94
ssg75
g1097
sg68
(lp1109
S':'
asbag61
(g82
g63
NtRp1110
(dp1111
g66
(dp1112
sg75
g1097
sg68
(lp1113
g61
(g62
g63
NtRp1114
(dp1115
g66
(dp1116
g74
I4
ssg75
g1110
sg68
(lp1117
S"<Values at 0x3096908: {'verbose': False, 'ip': '127.0.0.1', 'shutdown_timeout': 5, 'taskbar': False, 'nocron': False, 'pid_filename': 'httpserver.pid', 'maxthreads': None, 'softcron': False, 'server_name': 'malena', 'bpython': False, 'nogui': False, 'port': 8000, 'extcron': False, 'debuglevel': 30, 'test': None, 'folder': '/home/marco/projects/final/web2py', 'config': '', 'import_models': False, 'winservice': '', 'shell': None, 'run': '', 'log_filename': 'httpserver.log', 'args': [''], 'socket_timeout': 5, 'ssl_ca_certificate': None, 'scheduler': None, 'profiler_filename': None, 'ssl_private_key': '', 'password': 'asd', 'request_queue_size': 5, 'ssl_certificate': '', 'cronjob': False, 'numthreads': None, 'quiet': False, 'interfaces': None, 'minthreads': None, 'timeout': 10, 'plain': False, 'nobanner': False}>"
p1118
asbasbasbag61
(g77
g63
NtRp1119
(dp1120
g66
(dp1121
sg75
g1024
sg68
(lp1122
g61
(g82
g63
NtRp1123
(dp1124
g66
(dp1125
g86
g87
ssg75
g1119
sg68
(lp1126
S'db_sessions'
p1127
asbag61
(g82
g63
NtRp1128
(dp1129
g66
(dp1130
g93
g94
ssg75
g1119
sg68
(lp1131
S':'
asbag61
(g82
g63
NtRp1132
(dp1133
g66
(dp1134
sg75
g1119
sg68
(lp1135
g61
(g62
g63
NtRp1136
(dp1137
g66
(dp1138
g74
I4
ssg75
g1132
sg68
(lp1139
S'set([])'
p1140
asbasbasbag61
(g77
g63
NtRp1141
(dp1142
g66
(dp1143
sg75
g1024
sg68
(lp1144
g61
(g82
g63
NtRp1145
(dp1146
g66
(dp1147
g86
g87
ssg75
g1141
sg68
(lp1148
S'debugging'
p1149
asbag61
(g82
g63
NtRp1150
(dp1151
g66
(dp1152
g93
g94
ssg75
g1141
sg68
(lp1153
S':'
asbag61
(g82
g63
NtRp1154
(dp1155
g66
(dp1156
sg75
g1141
sg68
(lp1157
g61
(g62
g63
NtRp1158
(dp1159
g66
(dp1160
g74
I4
ssg75
g1154
sg68
(lp1161
g104
asbasbasbag61
(g77
g63
NtRp1162
(dp1163
g66
(dp1164
sg75
g1024
sg68
(lp1165
g61
(g82
g63
NtRp1166
(dp1167
g66
(dp1168
g86
g87
ssg75
g1162
sg68
(lp1169
S'gluon_parent'
p1170
asbag61
(g82
g63
NtRp1171
(dp1172
g66
(dp1173
g93
g94
ssg75
g1162
sg68
(lp1174
S':'
asbag61
(g82
g63
NtRp1175
(dp1176
g66
(dp1177
sg75
g1162
sg68
(lp1178
g61
(g62
g63
NtRp1179
(dp1180
g66
(dp1181
g74
I4
ssg75
g1175
sg68
(lp1182
S'/home/marco/projects/final/web2py'
p1183
asbasbasbag61
(g77
g63
NtRp1184
(dp1185
g66
(dp1186
sg75
g1024
sg68
(lp1187
g61
(g82
g63
NtRp1188
(dp1189
g66
(dp1190
g86
g87
ssg75
g1184
sg68
(lp1191
S'http_accept'
p1192
asbag61
(g82
g63
NtRp1193
(dp1194
g66
(dp1195
g93
g94
ssg75
g1184
sg68
(lp1196
S':'
asbag61
(g82
g63
NtRp1197
(dp1198
g66
(dp1199
sg75
g1184
sg68
(lp1200
g61
(g62
g63
NtRp1201
(dp1202
g66
(dp1203
g74
I4
ssg75
g1197
sg68
(lp1204
S'text/html,application/xhtml+xml,application/xml;q=0.9,*/*;q=0.8'
p1205
asbasbasbag61
(g77
g63
NtRp1206
(dp1207
g66
(dp1208
sg75
g1024
sg68
(lp1209
g61
(g82
g63
NtRp1210
(dp1211
g66
(dp1212
g86
g87
ssg75
g1206
sg68
(lp1213
S'http_accept_encoding'
p1214
asbag61
(g82
g63
NtRp1215
(dp1216
g66
(dp1217
g93
g94
ssg75
g1206
sg68
(lp1218
S':'
asbag61
(g82
g63
NtRp1219
(dp1220
g66
(dp1221
sg75
g1206
sg68
(lp1222
g61
(g62
g63
NtRp1223
(dp1224
g66
(dp1225
g74
I4
ssg75
g1219
sg68
(lp1226
S'gzip, deflate'
p1227
asbasbasbag61
(g77
g63
NtRp1228
(dp1229
g66
(dp1230
sg75
g1024
sg68
(lp1231
g61
(g82
g63
NtRp1232
(dp1233
g66
(dp1234
g86
g87
ssg75
g1228
sg68
(lp1235
S'http_accept_language'
p1236
asbag61
(g82
g63
NtRp1237
(dp1238
g66
(dp1239
g93
g94
ssg75
g1228
sg68
(lp1240
S':'
asbag61
(g82
g63
NtRp1241
(dp1242
g66
(dp1243
sg75
g1228
sg68
(lp1244
g61
(g62
g63
NtRp1245
(dp1246
g66
(dp1247
g74
I4
ssg75
g1241
sg68
(lp1248
S'es-ar,es;q=0.8,en-us;q=0.5,en;q=0.3'
p1249
asbasbasbag61
(g77
g63
NtRp1250
(dp1251
g66
(dp1252
sg75
g1024
sg68
(lp1253
g61
(g82
g63
NtRp1254
(dp1255
g66
(dp1256
g86
g87
ssg75
g1250
sg68
(lp1257
S'http_cache_control'
p1258
asbag61
(g82
g63
NtRp1259
(dp1260
g66
(dp1261
g93
g94
ssg75
g1250
sg68
(lp1262
S':'
asbag61
(g82
g63
NtRp1263
(dp1264
g66
(dp1265
sg75
g1250
sg68
(lp1266
g61
(g62
g63
NtRp1267
(dp1268
g66
(dp1269
g74
I4
ssg75
g1263
sg68
(lp1270
S'max-age=0'
p1271
asbasbasbag61
(g77
g63
NtRp1272
(dp1273
g66
(dp1274
sg75
g1024
sg68
(lp1275
g61
(g82
g63
NtRp1276
(dp1277
g66
(dp1278
g86
g87
ssg75
g1272
sg68
(lp1279
S'http_connection'
p1280
asbag61
(g82
g63
NtRp1281
(dp1282
g66
(dp1283
g93
g94
ssg75
g1272
sg68
(lp1284
S':'
asbag61
(g82
g63
NtRp1285
(dp1286
g66
(dp1287
sg75
g1272
sg68
(lp1288
g61
(g62
g63
NtRp1289
(dp1290
g66
(dp1291
g74
I4
ssg75
g1285
sg68
(lp1292
S'keep-alive'
p1293
asbasbasbag61
(g77
g63
NtRp1294
(dp1295
g66
(dp1296
sg75
g1024
sg68
(lp1297
g61
(g82
g63
NtRp1298
(dp1299
g66
(dp1300
g86
g87
ssg75
g1294
sg68
(lp1301
S'http_cookie'
p1302
asbag61
(g82
g63
NtRp1303
(dp1304
g66
(dp1305
g93
g94
ssg75
g1294
sg68
(lp1306
S':'
asbag61
(g82
g63
NtRp1307
(dp1308
g66
(dp1309
sg75
g1294
sg68
(lp1310
g61
(g62
g63
NtRp1311
(dp1312
g66
(dp1313
g74
I4
ssg75
g1307
sg68
(lp1314
S'__utma=96992031.1881515701.1331265087.1331778935.1331861747.16; __utmz=96992031.1331265087.1.1.utmcsr=(direct)|utmccn=(direct)|utmcmd=(none); session_id_cms2py=127.0.0.1-db2c84f2-5bb4-4e94-bf18-59e716a606f8; session_id_pyforum2=127.0.0.1-1de74391-958a-49b2-a5a0-5aa3a64be417; session_id_woppi=127.0.0.1-2fcd2ca5-ac5c-4fa4-9dad-3f95823e803d; session_id_admin=127.0.0.1-f6e3071f-311f-4a28-92f4-b7ecfca56bda'
p1315
asbasbasbag61
(g77
g63
NtRp1316
(dp1317
g66
(dp1318
sg75
g1024
sg68
(lp1319
g61
(g82
g63
NtRp1320
(dp1321
g66
(dp1322
g86
g87
ssg75
g1316
sg68
(lp1323
S'http_host'
p1324
asbag61
(g82
g63
NtRp1325
(dp1326
g66
(dp1327
g93
g94
ssg75
g1316
sg68
(lp1328
S':'
asbag61
(g82
g63
NtRp1329
(dp1330
g66
(dp1331
sg75
g1316
sg68
(lp1332
g61
(g62
g63
NtRp1333
(dp1334
g66
(dp1335
g74
I4
ssg75
g1329
sg68
(lp1336
S'127.0.0.1:8000'
p1337
asbasbasbag61
(g77
g63
NtRp1338
(dp1339
g66
(dp1340
sg75
g1024
sg68
(lp1341
g61
(g82
g63
NtRp1342
(dp1343
g66
(dp1344
g86
g87
ssg75
g1338
sg68
(lp1345
S'http_referer'
p1346
asbag61
(g82
g63
NtRp1347
(dp1348
g66
(dp1349
g93
g94
ssg75
g1338
sg68
(lp1350
S':'
asbag61
(g82
g63
NtRp1351
(dp1352
g66
(dp1353
sg75
g1338
sg68
(lp1354
g61
(g62
g63
NtRp1355
(dp1356
g66
(dp1357
g74
I4
ssg75
g1351
sg68
(lp1358
S'http://127.0.0.1:8000/woppi/default/index'
p1359
asbasbasbag61
(g77
g63
NtRp1360
(dp1361
g66
(dp1362
sg75
g1024
sg68
(lp1363
g61
(g82
g63
NtRp1364
(dp1365
g66
(dp1366
g86
g87
ssg75
g1360
sg68
(lp1367
S'http_user_agent'
p1368
asbag61
(g82
g63
NtRp1369
(dp1370
g66
(dp1371
g93
g94
ssg75
g1360
sg68
(lp1372
S':'
asbag61
(g82
g63
NtRp1373
(dp1374
g66
(dp1375
sg75
g1360
sg68
(lp1376
g61
(g62
g63
NtRp1377
(dp1378
g66
(dp1379
g74
I4
ssg75
g1373
sg68
(lp1380
S'Mozilla/5.0 (X11; Linux x86_64; rv:11.0) Gecko/20100101 Firefox/11.0 Iceweasel/11.0'
p1381
asbasbasbag61
(g77
g63
NtRp1382
(dp1383
g66
(dp1384
sg75
g1024
sg68
(lp1385
g61
(g82
g63
NtRp1386
(dp1387
g66
(dp1388
g86
g87
ssg75
g1382
sg68
(lp1389
S'is_jython'
p1390
asbag61
(g82
g63
NtRp1391
(dp1392
g66
(dp1393
g93
g94
ssg75
g1382
sg68
(lp1394
S':'
asbag61
(g82
g63
NtRp1395
(dp1396
g66
(dp1397
sg75
g1382
sg68
(lp1398
g61
(g62
g63
NtRp1399
(dp1400
g66
(dp1401
g74
I4
ssg75
g1395
sg68
(lp1402
g104
asbasbasbag61
(g77
g63
NtRp1403
(dp1404
g66
(dp1405
sg75
g1024
sg68
(lp1406
g61
(g82
g63
NtRp1407
(dp1408
g66
(dp1409
g86
g87
ssg75
g1403
sg68
(lp1410
S'is_pypy'
p1411
asbag61
(g82
g63
NtRp1412
(dp1413
g66
(dp1414
g93
g94
ssg75
g1403
sg68
(lp1415
S':'
asbag61
(g82
g63
NtRp1416
(dp1417
g66
(dp1418
sg75
g1403
sg68
(lp1419
g61
(g62
g63
NtRp1420
(dp1421
g66
(dp1422
g74
I4
ssg75
g1416
sg68
(lp1423
g104
asbasbasbag61
(g77
g63
NtRp1424
(dp1425
g66
(dp1426
sg75
g1024
sg68
(lp1427
g61
(g82
g63
NtRp1428
(dp1429
g66
(dp1430
g86
g87
ssg75
g1424
sg68
(lp1431
S'path_info'
p1432
asbag61
(g82
g63
NtRp1433
(dp1434
g66
(dp1435
g93
g94
ssg75
g1424
sg68
(lp1436
S':'
asbag61
(g82
g63
NtRp1437
(dp1438
g66
(dp1439
sg75
g1424
sg68
(lp1440
g61
(g62
g63
NtRp1441
(dp1442
g66
(dp1443
g74
I4
ssg75
g1437
sg68
(lp1444
S'/woppi/default/user/register'
p1445
asbasbasbag61
(g77
g63
NtRp1446
(dp1447
g66
(dp1448
sg75
g1024
sg68
(lp1449
g61
(g82
g63
NtRp1450
(dp1451
g66
(dp1452
g86
g87
ssg75
g1446
sg68
(lp1453
S'query_string'
p1454
asbag61
(g82
g63
NtRp1455
(dp1456
g66
(dp1457
g93
g94
ssg75
g1446
sg68
(lp1458
S':'
asbag61
(g82
g63
NtRp1459
(dp1460
g66
(dp1461
sg75
g1446
sg68
(lp1462
g61
(g62
g63
NtRp1463
(dp1464
g66
(dp1465
g74
I4
ssg75
g1459
sg68
(lp1466
S'_next=/woppi/default/index'
p1467
asbasbasbag61
(g77
g63
NtRp1468
(dp1469
g66
(dp1470
sg75
g1024
sg68
(lp1471
g61
(g82
g63
NtRp1472
(dp1473
g66
(dp1474
g86
g87
ssg75
g1468
sg68
(lp1475
S'remote_addr'
p1476
asbag61
(g82
g63
NtRp1477
(dp1478
g66
(dp1479
g93
g94
ssg75
g1468
sg68
(lp1480
S':'
asbag61
(g82
g63
NtRp1481
(dp1482
g66
(dp1483
sg75
g1468
sg68
(lp1484
g61
(g62
g63
NtRp1485
(dp1486
g66
(dp1487
g74
I4
ssg75
g1481
sg68
(lp1488
g207
asbasbasbag61
(g77
g63
NtRp1489
(dp1490
g66
(dp1491
sg75
g1024
sg68
(lp1492
g61
(g82
g63
NtRp1493
(dp1494
g66
(dp1495
g86
g87
ssg75
g1489
sg68
(lp1496
S'remote_port'
p1497
asbag61
(g82
g63
NtRp1498
(dp1499
g66
(dp1500
g93
g94
ssg75
g1489
sg68
(lp1501
S':'
asbag61
(g82
g63
NtRp1502
(dp1503
g66
(dp1504
sg75
g1489
sg68
(lp1505
g61
(g62
g63
NtRp1506
(dp1507
g66
(dp1508
g74
I4
ssg75
g1502
sg68
(lp1509
S'34922'
p1510
asbasbasbag61
(g77
g63
NtRp1511
(dp1512
g66
(dp1513
sg75
g1024
sg68
(lp1514
g61
(g82
g63
NtRp1515
(dp1516
g66
(dp1517
g86
g87
ssg75
g1511
sg68
(lp1518
S'request_method'
p1519
asbag61
(g82
g63
NtRp1520
(dp1521
g66
(dp1522
g93
g94
ssg75
g1511
sg68
(lp1523
S':'
asbag61
(g82
g63
NtRp1524
(dp1525
g66
(dp1526
sg75
g1511
sg68
(lp1527
g61
(g62
g63
NtRp1528
(dp1529
g66
(dp1530
g74
I4
ssg75
g1524
sg68
(lp1531
S'GET'
p1532
asbasbasbag61
(g77
g63
NtRp1533
(dp1534
g66
(dp1535
sg75
g1024
sg68
(lp1536
g61
(g82
g63
NtRp1537
(dp1538
g66
(dp1539
g86
g87
ssg75
g1533
sg68
(lp1540
S'script_name'
p1541
asbag61
(g82
g63
NtRp1542
(dp1543
g66
(dp1544
g93
g94
ssg75
g1533
sg68
(lp1545
S':'
asbag61
(g82
g63
NtRp1546
(dp1547
g66
(dp1548
sg75
g1533
sg68
(lp1549
g61
(g62
g63
NtRp1550
(dp1551
g66
(dp1552
g74
I4
ssg75
g1546
sg68
(lp1553
S''
asbasbasbag61
(g77
g63
NtRp1554
(dp1555
g66
(dp1556
sg75
g1024
sg68
(lp1557
g61
(g82
g63
NtRp1558
(dp1559
g66
(dp1560
g86
g87
ssg75
g1554
sg68
(lp1561
S'server_name'
p1562
asbag61
(g82
g63
NtRp1563
(dp1564
g66
(dp1565
g93
g94
ssg75
g1554
sg68
(lp1566
S':'
asbag61
(g82
g63
NtRp1567
(dp1568
g66
(dp1569
sg75
g1554
sg68
(lp1570
g61
(g62
g63
NtRp1571
(dp1572
g66
(dp1573
g74
I4
ssg75
g1567
sg68
(lp1574
S'malena'
p1575
asbasbasbag61
(g77
g63
NtRp1576
(dp1577
g66
(dp1578
sg75
g1024
sg68
(lp1579
g61
(g82
g63
NtRp1580
(dp1581
g66
(dp1582
g86
g87
ssg75
g1576
sg68
(lp1583
S'server_port'
p1584
asbag61
(g82
g63
NtRp1585
(dp1586
g66
(dp1587
g93
g94
ssg75
g1576
sg68
(lp1588
S':'
asbag61
(g82
g63
NtRp1589
(dp1590
g66
(dp1591
sg75
g1576
sg68
(lp1592
g61
(g62
g63
NtRp1593
(dp1594
g66
(dp1595
g74
I4
ssg75
g1589
sg68
(lp1596
S'8000'
p1597
asbasbasbag61
(g77
g63
NtRp1598
(dp1599
g66
(dp1600
sg75
g1024
sg68
(lp1601
g61
(g82
g63
NtRp1602
(dp1603
g66
(dp1604
g86
g87
ssg75
g1598
sg68
(lp1605
S'server_protocol'
p1606
asbag61
(g82
g63
NtRp1607
(dp1608
g66
(dp1609
g93
g94
ssg75
g1598
sg68
(lp1610
S':'
asbag61
(g82
g63
NtRp1611
(dp1612
g66
(dp1613
sg75
g1598
sg68
(lp1614
g61
(g62
g63
NtRp1615
(dp1616
g66
(dp1617
g74
I4
ssg75
g1611
sg68
(lp1618
S'HTTP/1.1'
p1619
asbasbasbag61
(g77
g63
NtRp1620
(dp1621
g66
(dp1622
sg75
g1024
sg68
(lp1623
g61
(g82
g63
NtRp1624
(dp1625
g66
(dp1626
g86
g87
ssg75
g1620
sg68
(lp1627
S'server_software'
p1628
asbag61
(g82
g63
NtRp1629
(dp1630
g66
(dp1631
g93
g94
ssg75
g1620
sg68
(lp1632
S':'
asbag61
(g82
g63
NtRp1633
(dp1634
g66
(dp1635
sg75
g1620
sg68
(lp1636
g61
(g62
g63
NtRp1637
(dp1638
g66
(dp1639
g74
I4
ssg75
g1633
sg68
(lp1640
S'Rocket 1.2.4'
p1641
asbasbasbag61
(g77
g63
NtRp1642
(dp1643
g66
(dp1644
sg75
g1024
sg68
(lp1645
g61
(g82
g63
NtRp1646
(dp1647
g66
(dp1648
g86
g87
ssg75
g1642
sg68
(lp1649
S'web2py_crontype'
p1650
asbag61
(g82
g63
NtRp1651
(dp1652
g66
(dp1653
g93
g94
ssg75
g1642
sg68
(lp1654
S':'
asbag61
(g82
g63
NtRp1655
(dp1656
g66
(dp1657
sg75
g1642
sg68
(lp1658
g61
(g62
g63
NtRp1659
(dp1660
g66
(dp1661
g74
I4
ssg75
g1655
sg68
(lp1662
S'hard'
p1663
asbasbasbag61
(g77
g63
NtRp1664
(dp1665
g66
(dp1666
sg75
g1024
sg68
(lp1667
g61
(g82
g63
NtRp1668
(dp1669
g66
(dp1670
g86
g87
ssg75
g1664
sg68
(lp1671
S'web2py_path'
p1672
asbag61
(g82
g63
NtRp1673
(dp1674
g66
(dp1675
g93
g94
ssg75
g1664
sg68
(lp1676
S':'
asbag61
(g82
g63
NtRp1677
(dp1678
g66
(dp1679
sg75
g1664
sg68
(lp1680
g61
(g62
g63
NtRp1681
(dp1682
g66
(dp1683
g74
I4
ssg75
g1677
sg68
(lp1684
g1071
asbasbasbag61
(g77
g63
NtRp1685
(dp1686
g66
(dp1687
sg75
g1024
sg68
(lp1688
g61
(g82
g63
NtRp1689
(dp1690
g66
(dp1691
g86
g87
ssg75
g1685
sg68
(lp1692
S'web2py_version'
p1693
asbag61
(g82
g63
NtRp1694
(dp1695
g66
(dp1696
g93
g94
ssg75
g1685
sg68
(lp1697
S':'
asbag61
(g82
g63
NtRp1698
(dp1699
g66
(dp1700
sg75
g1685
sg68
(lp1701
g61
(g62
g63
NtRp1702
(dp1703
g66
(dp1704
g74
I4
ssg75
g1698
sg68
(lp1705
g61
(g70
g63
NtRp1706
(dp1707
g66
(dp1708
g74
I3
ssg75
Nsg68
(lp1709
g61
(g77
g63
NtRp1710
(dp1711
g66
(dp1712
sg75
g1706
sg68
(lp1713
g61
(g82
g63
NtRp1714
(dp1715
g66
(dp1716
sg75
g1710
sg68
(lp1717
g61
(g62
g63
NtRp1718
(dp1719
g66
(dp1720
g74
I3
ssg75
g1714
sg68
(lp1721
S'1'
asbasbasbag61
(g77
g63
NtRp1722
(dp1723
g66
(dp1724
sg75
g1706
sg68
(lp1725
g61
(g82
g63
NtRp1726
(dp1727
g66
(dp1728
sg75
g1722
sg68
(lp1729
g61
(g62
g63
NtRp1730
(dp1731
g66
(dp1732
g74
I3
ssg75
g1726
sg68
(lp1733
S'99'
p1734
asbasbasbag61
(g77
g63
NtRp1735
(dp1736
g66
(dp1737
sg75
g1706
sg68
(lp1738
g61
(g82
g63
NtRp1739
(dp1740
g66
(dp1741
sg75
g1735
sg68
(lp1742
g61
(g62
g63
NtRp1743
(dp1744
g66
(dp1745
g74
I3
ssg75
g1739
sg68
(lp1746
S'7'
asbasbasbag61
(g77
g63
NtRp1747
(dp1748
g66
(dp1749
sg75
g1706
sg68
(lp1750
g61
(g82
g63
NtRp1751
(dp1752
g66
(dp1753
sg75
g1747
sg68
(lp1754
g61
(g62
g63
NtRp1755
(dp1756
g66
(dp1757
g74
I3
ssg75
g1751
sg68
(lp1758
S'datetime.datetime(2012, 3, 4, 22, 12, 8)'
p1759
asbasbasbag61
(g77
g63
NtRp1760
(dp1761
g66
(dp1762
sg75
g1706
sg68
(lp1763
g61
(g82
g63
NtRp1764
(dp1765
g66
(dp1766
sg75
g1760
sg68
(lp1767
g61
(g62
g63
NtRp1768
(dp1769
g66
(dp1770
g74
I3
ssg75
g1764
sg68
(lp1771
S'stable'
p1772
asbasbasbasbasbasbasbag61
(g77
g63
NtRp1773
(dp1774
g66
(dp1775
sg75
g1024
sg68
(lp1776
g61
(g82
g63
NtRp1777
(dp1778
g66
(dp1779
g86
g87
ssg75
g1773
sg68
(lp1780
S'wsgi_errors'
p1781
asbag61
(g82
g63
NtRp1782
(dp1783
g66
(dp1784
g93
g94
ssg75
g1773
sg68
(lp1785
S':'
asbag61
(g82
g63
NtRp1786
(dp1787
g66
(dp1788
sg75
g1773
sg68
(lp1789
g61
(g62
g63
NtRp1790
(dp1791
g66
(dp1792
g74
I4
ssg75
g1786
sg68
(lp1793
S"<open file '<stderr>', mode 'w' at 0x7fcb81470270>"
p1794
asbasbasbag61
(g77
g63
NtRp1795
(dp1796
g66
(dp1797
sg75
g1024
sg68
(lp1798
g61
(g82
g63
NtRp1799
(dp1800
g66
(dp1801
g86
g87
ssg75
g1795
sg68
(lp1802
S'wsgi_file_wrapper'
p1803
asbag61
(g82
g63
NtRp1804
(dp1805
g66
(dp1806
g93
g94
ssg75
g1795
sg68
(lp1807
S':'
asbag61
(g82
g63
NtRp1808
(dp1809
g66
(dp1810
sg75
g1795
sg68
(lp1811
g61
(g62
g63
NtRp1812
(dp1813
g66
(dp1814
g74
I4
ssg75
g1808
sg68
(lp1815
S'<class wsgiref.util.FileWrapper at 0x2f870b8>'
p1816
asbasbasbag61
(g77
g63
NtRp1817
(dp1818
g66
(dp1819
sg75
g1024
sg68
(lp1820
g61
(g82
g63
NtRp1821
(dp1822
g66
(dp1823
g86
g87
ssg75
g1817
sg68
(lp1824
S'wsgi_input'
p1825
asbag61
(g82
g63
NtRp1826
(dp1827
g66
(dp1828
g93
g94
ssg75
g1817
sg68
(lp1829
S':'
asbag61
(g82
g63
NtRp1830
(dp1831
g66
(dp1832
sg75
g1817
sg68
(lp1833
g61
(g62
g63
NtRp1834
(dp1835
g66
(dp1836
g74
I4
ssg75
g1830
sg68
(lp1837
S'<socket._fileobject object at 0x3557050>'
p1838
asbasbasbag61
(g77
g63
NtRp1839
(dp1840
g66
(dp1841
sg75
g1024
sg68
(lp1842
g61
(g82
g63
NtRp1843
(dp1844
g66
(dp1845
g86
g87
ssg75
g1839
sg68
(lp1846
S'wsgi_multiprocess'
p1847
asbag61
(g82
g63
NtRp1848
(dp1849
g66
(dp1850
g93
g94
ssg75
g1839
sg68
(lp1851
S':'
asbag61
(g82
g63
NtRp1852
(dp1853
g66
(dp1854
sg75
g1839
sg68
(lp1855
g61
(g62
g63
NtRp1856
(dp1857
g66
(dp1858
g74
I4
ssg75
g1852
sg68
(lp1859
g104
asbasbasbag61
(g77
g63
NtRp1860
(dp1861
g66
(dp1862
sg75
g1024
sg68
(lp1863
g61
(g82
g63
NtRp1864
(dp1865
g66
(dp1866
g86
g87
ssg75
g1860
sg68
(lp1867
S'wsgi_multithread'
p1868
asbag61
(g82
g63
NtRp1869
(dp1870
g66
(dp1871
g93
g94
ssg75
g1860
sg68
(lp1872
S':'
asbag61
(g82
g63
NtRp1873
(dp1874
g66
(dp1875
sg75
g1860
sg68
(lp1876
g61
(g62
g63
NtRp1877
(dp1878
g66
(dp1879
g74
I4
ssg75
g1873
sg68
(lp1880
S'True'
p1881
asbasbasbag61
(g77
g63
NtRp1882
(dp1883
g66
(dp1884
sg75
g1024
sg68
(lp1885
g61
(g82
g63
NtRp1886
(dp1887
g66
(dp1888
g86
g87
ssg75
g1882
sg68
(lp1889
S'wsgi_run_once'
p1890
asbag61
(g82
g63
NtRp1891
(dp1892
g66
(dp1893
g93
g94
ssg75
g1882
sg68
(lp1894
S':'
asbag61
(g82
g63
NtRp1895
(dp1896
g66
(dp1897
sg75
g1882
sg68
(lp1898
g61
(g62
g63
NtRp1899
(dp1900
g66
(dp1901
g74
I4
ssg75
g1895
sg68
(lp1902
g104
asbasbasbag61
(g77
g63
NtRp1903
(dp1904
g66
(dp1905
sg75
g1024
sg68
(lp1906
g61
(g82
g63
NtRp1907
(dp1908
g66
(dp1909
g86
g87
ssg75
g1903
sg68
(lp1910
S'wsgi_url_scheme'
p1911
asbag61
(g82
g63
NtRp1912
(dp1913
g66
(dp1914
g93
g94
ssg75
g1903
sg68
(lp1915
S':'
asbag61
(g82
g63
NtRp1916
(dp1917
g66
(dp1918
sg75
g1903
sg68
(lp1919
g61
(g62
g63
NtRp1920
(dp1921
g66
(dp1922
g74
I4
ssg75
g1916
sg68
(lp1923
S'http'
p1924
asbasbasbag61
(g77
g63
NtRp1925
(dp1926
g66
(dp1927
sg75
g1024
sg68
(lp1928
g61
(g82
g63
NtRp1929
(dp1930
g66
(dp1931
g86
g87
ssg75
g1925
sg68
(lp1932
S'wsgi_version'
p1933
asbag61
(g82
g63
NtRp1934
(dp1935
g66
(dp1936
g93
g94
ssg75
g1925
sg68
(lp1937
S':'
asbag61
(g82
g63
NtRp1938
(dp1939
g66
(dp1940
sg75
g1925
sg68
(lp1941
g61
(g62
g63
NtRp1942
(dp1943
g66
(dp1944
g74
I4
ssg75
g1938
sg68
(lp1945
g61
(g70
g63
NtRp1946
(dp1947
g66
(dp1948
g74
I3
ssg75
Nsg68
(lp1949
g61
(g77
g63
NtRp1950
(dp1951
g66
(dp1952
sg75
g1946
sg68
(lp1953
g61
(g82
g63
NtRp1954
(dp1955
g66
(dp1956
sg75
g1950
sg68
(lp1957
g61
(g62
g63
NtRp1958
(dp1959
g66
(dp1960
g74
I3
ssg75
g1954
sg68
(lp1961
S'1'
asbasbasbag61
(g77
g63
NtRp1962
(dp1963
g66
(dp1964
sg75
g1946
sg68
(lp1965
g61
(g82
g63
NtRp1966
(dp1967
g66
(dp1968
sg75
g1962
sg68
(lp1969
g61
(g62
g63
NtRp1970
(dp1971
g66
(dp1972
g74
I3
ssg75
g1966
sg68
(lp1973
S'0'
asbasbasbasbasbasbasbasbasbasbasbag61
(g77
g63
NtRp1974
(dp1975
g66
(dp1976
sg75
g71
sg68
(lp1977
g61
(g82
g63
NtRp1978
(dp1979
g66
(dp1980
g86
g87
ssg75
g1974
sg68
(lp1981
S'extension'
p1982
asbag61
(g82
g63
NtRp1983
(dp1984
g66
(dp1985
g93
g94
ssg75
g1974
sg68
(lp1986
S':'
asbag61
(g82
g63
NtRp1987
(dp1988
g66
(dp1989
sg75
g1974
sg68
(lp1990
g61
(g62
g63
NtRp1991
(dp1992
g66
(dp1993
g74
I5
ssg75
g1987
sg68
(lp1994
S'html'
p1995
asbasbasbag61
(g77
g63
NtRp1996
(dp1997
g66
(dp1998
sg75
g71
sg68
(lp1999
g61
(g82
g63
NtRp2000
(dp2001
g66
(dp2002
g86
g87
ssg75
g1996
sg68
(lp2003
S'folder'
p2004
asbag61
(g82
g63
NtRp2005
(dp2006
g66
(dp2007
g93
g94
ssg75
g1996
sg68
(lp2008
S':'
asbag61
(g82
g63
NtRp2009
(dp2010
g66
(dp2011
sg75
g1996
sg68
(lp2012
g61
(g62
g63
NtRp2013
(dp2014
g66
(dp2015
g74
I5
ssg75
g2009
sg68
(lp2016
S'/home/marco/projects/final/web2py/applications/woppi/'
p2017
asbasbasbag61
(g77
g63
NtRp2018
(dp2019
g66
(dp2020
sg75
g71
sg68
(lp2021
g61
(g82
g63
NtRp2022
(dp2023
g66
(dp2024
g86
g87
ssg75
g2018
sg68
(lp2025
S'function'
p2026
asbag61
(g82
g63
NtRp2027
(dp2028
g66
(dp2029
g93
g94
ssg75
g2018
sg68
(lp2030
S':'
asbag61
(g82
g63
NtRp2031
(dp2032
g66
(dp2033
sg75
g2018
sg68
(lp2034
g61
(g62
g63
NtRp2035
(dp2036
g66
(dp2037
g74
I5
ssg75
g2031
sg68
(lp2038
S'user'
p2039
asbasbasbag61
(g77
g63
NtRp2040
(dp2041
g66
(dp2042
sg75
g71
sg68
(lp2043
g61
(g82
g63
NtRp2044
(dp2045
g66
(dp2046
g86
g87
ssg75
g2040
sg68
(lp2047
S'get_vars'
p2048
asbag61
(g82
g63
NtRp2049
(dp2050
g66
(dp2051
g93
g94
ssg75
g2040
sg68
(lp2052
S':'
asbag61
(g82
g63
NtRp2053
(dp2054
g66
(dp2055
sg75
g2040
sg68
(lp2056
g61
(g62
g63
NtRp2057
(dp2058
g66
(dp2059
g74
I5
ssg75
g2053
sg68
(lp2060
g61
(g70
g63
NtRp2061
(dp2062
g66
(dp2063
g74
I4
ssg75
Nsg68
(lp2064
sbasbasbasbag61
(g77
g63
NtRp2065
(dp2066
g66
(dp2067
sg75
g71
sg68
(lp2068
g61
(g82
g63
NtRp2069
(dp2070
g66
(dp2071
g86
g87
ssg75
g2065
sg68
(lp2072
S'global_settings'
p2073
asbag61
(g82
g63
NtRp2074
(dp2075
g66
(dp2076
g93
g94
ssg75
g2065
sg68
(lp2077
S':'
asbag61
(g82
g63
NtRp2078
(dp2079
g66
(dp2080
sg75
g2065
sg68
(lp2081
g61
(g62
g63
NtRp2082
(dp2083
g66
(dp2084
g74
I5
ssg75
g2078
sg68
(lp2085
g61
(g70
g63
NtRp2086
(dp2087
g66
(dp2088
g74
I4
ssg75
Nsg68
(lp2089
g61
(g77
g63
NtRp2090
(dp2091
g66
(dp2092
sg75
g2086
sg68
(lp2093
g61
(g82
g63
NtRp2094
(dp2095
g66
(dp2096
g86
g87
ssg75
g2090
sg68
(lp2097
g1036
asbag61
(g82
g63
NtRp2098
(dp2099
g66
(dp2100
g93
g94
ssg75
g2090
sg68
(lp2101
S':'
asbag61
(g82
g63
NtRp2102
(dp2103
g66
(dp2104
sg75
g2090
sg68
(lp2105
g61
(g62
g63
NtRp2106
(dp2107
g66
(dp2108
g74
I4
ssg75
g2102
sg68
(lp2109
S"set(['/home/marco/projects/final/web2py/applications/woppi/', '/home/marco/projects/final/web2py/applications/admin/'])"
p2110
asbasbasbag61
(g77
g63
NtRp2111
(dp2112
g66
(dp2113
sg75
g2086
sg68
(lp2114
g61
(g82
g63
NtRp2115
(dp2116
g66
(dp2117
g86
g87
ssg75
g2111
sg68
(lp2118
g1058
asbag61
(g82
g63
NtRp2119
(dp2120
g66
(dp2121
g93
g94
ssg75
g2111
sg68
(lp2122
S':'
asbag61
(g82
g63
NtRp2123
(dp2124
g66
(dp2125
sg75
g2111
sg68
(lp2126
g61
(g62
g63
NtRp2127
(dp2128
g66
(dp2129
g74
I4
ssg75
g2123
sg68
(lp2130
g1071
asbasbasbag61
(g77
g63
NtRp2131
(dp2132
g66
(dp2133
sg75
g2086
sg68
(lp2134
g61
(g82
g63
NtRp2135
(dp2136
g66
(dp2137
g86
g87
ssg75
g2131
sg68
(lp2138
g1080
asbag61
(g82
g63
NtRp2139
(dp2140
g66
(dp2141
g93
g94
ssg75
g2131
sg68
(lp2142
S':'
asbag61
(g82
g63
NtRp2143
(dp2144
g66
(dp2145
sg75
g2131
sg68
(lp2146
g61
(g62
g63
NtRp2147
(dp2148
g66
(dp2149
g74
I4
ssg75
g2143
sg68
(lp2150
g61
(g70
g63
NtRp2151
(dp2152
g66
(dp2153
g74
I3
ssg75
Nsg68
(lp2154
sbasbasbasbag61
(g77
g63
NtRp2155
(dp2156
g66
(dp2157
sg75
g2086
sg68
(lp2158
g61
(g82
g63
NtRp2159
(dp2160
g66
(dp2161
g86
g87
ssg75
g2155
sg68
(lp2162
g1105
asbag61
(g82
g63
NtRp2163
(dp2164
g66
(dp2165
g93
g94
ssg75
g2155
sg68
(lp2166
S':'
asbag61
(g82
g63
NtRp2167
(dp2168
g66
(dp2169
sg75
g2155
sg68
(lp2170
g61
(g62
g63
NtRp2171
(dp2172
g66
(dp2173
g74
I4
ssg75
g2167
sg68
(lp2174
S"<Values at 0x3096908: {'verbose': False, 'ip': '127.0.0.1', 'shutdown_timeout': 5, 'taskbar': False, 'nocron': False, 'pid_filename': 'httpserver.pid', 'maxthreads': None, 'softcron': False, 'server_name': 'malena', 'bpython': False, 'nogui': False, 'port': 8000, 'extcron': False, 'debuglevel': 30, 'test': None, 'folder': '/home/marco/projects/final/web2py', 'config': '', 'import_models': False, 'winservice': '', 'shell': None, 'run': '', 'log_filename': 'httpserver.log', 'args': [''], 'socket_timeout': 5, 'ssl_ca_certificate': None, 'scheduler': None, 'profiler_filename': None, 'ssl_private_key': '', 'password': 'asd', 'request_queue_size': 5, 'ssl_certificate': '', 'cronjob': False, 'numthreads': None, 'quiet': False, 'interfaces': None, 'minthreads': None, 'timeout': 10, 'plain': False, 'nobanner': False}>"
p2175
asbasbasbag61
(g77
g63
NtRp2176
(dp2177
g66
(dp2178
sg75
g2086
sg68
(lp2179
g61
(g82
g63
NtRp2180
(dp2181
g66
(dp2182
g86
g87
ssg75
g2176
sg68
(lp2183
g1127
asbag61
(g82
g63
NtRp2184
(dp2185
g66
(dp2186
g93
g94
ssg75
g2176
sg68
(lp2187
S':'
asbag61
(g82
g63
NtRp2188
(dp2189
g66
(dp2190
sg75
g2176
sg68
(lp2191
g61
(g62
g63
NtRp2192
(dp2193
g66
(dp2194
g74
I4
ssg75
g2188
sg68
(lp2195
S'set([])'
p2196
asbasbasbag61
(g77
g63
NtRp2197
(dp2198
g66
(dp2199
sg75
g2086
sg68
(lp2200
g61
(g82
g63
NtRp2201
(dp2202
g66
(dp2203
g86
g87
ssg75
g2197
sg68
(lp2204
g1149
asbag61
(g82
g63
NtRp2205
(dp2206
g66
(dp2207
g93
g94
ssg75
g2197
sg68
(lp2208
S':'
asbag61
(g82
g63
NtRp2209
(dp2210
g66
(dp2211
sg75
g2197
sg68
(lp2212
g61
(g62
g63
NtRp2213
(dp2214
g66
(dp2215
g74
I4
ssg75
g2209
sg68
(lp2216
g104
asbasbasbag61
(g77
g63
NtRp2217
(dp2218
g66
(dp2219
sg75
g2086
sg68
(lp2220
g61
(g82
g63
NtRp2221
(dp2222
g66
(dp2223
g86
g87
ssg75
g2217
sg68
(lp2224
g1170
asbag61
(g82
g63
NtRp2225
(dp2226
g66
(dp2227
g93
g94
ssg75
g2217
sg68
(lp2228
S':'
asbag61
(g82
g63
NtRp2229
(dp2230
g66
(dp2231
sg75
g2217
sg68
(lp2232
g61
(g62
g63
NtRp2233
(dp2234
g66
(dp2235
g74
I4
ssg75
g2229
sg68
(lp2236
g1183
asbasbasbag61
(g77
g63
NtRp2237
(dp2238
g66
(dp2239
sg75
g2086
sg68
(lp2240
g61
(g82
g63
NtRp2241
(dp2242
g66
(dp2243
g86
g87
ssg75
g2237
sg68
(lp2244
g1390
asbag61
(g82
g63
NtRp2245
(dp2246
g66
(dp2247
g93
g94
ssg75
g2237
sg68
(lp2248
S':'
asbag61
(g82
g63
NtRp2249
(dp2250
g66
(dp2251
sg75
g2237
sg68
(lp2252
g61
(g62
g63
NtRp2253
(dp2254
g66
(dp2255
g74
I4
ssg75
g2249
sg68
(lp2256
g104
asbasbasbag61
(g77
g63
NtRp2257
(dp2258
g66
(dp2259
sg75
g2086
sg68
(lp2260
g61
(g82
g63
NtRp2261
(dp2262
g66
(dp2263
g86
g87
ssg75
g2257
sg68
(lp2264
g1411
asbag61
(g82
g63
NtRp2265
(dp2266
g66
(dp2267
g93
g94
ssg75
g2257
sg68
(lp2268
S':'
asbag61
(g82
g63
NtRp2269
(dp2270
g66
(dp2271
sg75
g2257
sg68
(lp2272
g61
(g62
g63
NtRp2273
(dp2274
g66
(dp2275
g74
I4
ssg75
g2269
sg68
(lp2276
g104
asbasbasbag61
(g77
g63
NtRp2277
(dp2278
g66
(dp2279
sg75
g2086
sg68
(lp2280
g61
(g82
g63
NtRp2281
(dp2282
g66
(dp2283
g86
g87
ssg75
g2277
sg68
(lp2284
g1650
asbag61
(g82
g63
NtRp2285
(dp2286
g66
(dp2287
g93
g94
ssg75
g2277
sg68
(lp2288
S':'
asbag61
(g82
g63
NtRp2289
(dp2290
g66
(dp2291
sg75
g2277
sg68
(lp2292
g61
(g62
g63
NtRp2293
(dp2294
g66
(dp2295
g74
I4
ssg75
g2289
sg68
(lp2296
g1663
asbasbasbag61
(g77
g63
NtRp2297
(dp2298
g66
(dp2299
sg75
g2086
sg68
(lp2300
g61
(g82
g63
NtRp2301
(dp2302
g66
(dp2303
g86
g87
ssg75
g2297
sg68
(lp2304
g1693
asbag61
(g82
g63
NtRp2305
(dp2306
g66
(dp2307
g93
g94
ssg75
g2297
sg68
(lp2308
S':'
asbag61
(g82
g63
NtRp2309
(dp2310
g66
(dp2311
sg75
g2297
sg68
(lp2312
g61
(g62
g63
NtRp2313
(dp2314
g66
(dp2315
g74
I4
ssg75
g2309
sg68
(lp2316
g61
(g70
g63
NtRp2317
(dp2318
g66
(dp2319
g74
I3
ssg75
Nsg68
(lp2320
g61
(g77
g63
NtRp2321
(dp2322
g66
(dp2323
sg75
g2317
sg68
(lp2324
g61
(g82
g63
NtRp2325
(dp2326
g66
(dp2327
sg75
g2321
sg68
(lp2328
g61
(g62
g63
NtRp2329
(dp2330
g66
(dp2331
g74
I3
ssg75
g2325
sg68
(lp2332
S'1'
asbasbasbag61
(g77
g63
NtRp2333
(dp2334
g66
(dp2335
sg75
g2317
sg68
(lp2336
g61
(g82
g63
NtRp2337
(dp2338
g66
(dp2339
sg75
g2333
sg68
(lp2340
g61
(g62
g63
NtRp2341
(dp2342
g66
(dp2343
g74
I3
ssg75
g2337
sg68
(lp2344
S'99'
p2345
asbasbasbag61
(g77
g63
NtRp2346
(dp2347
g66
(dp2348
sg75
g2317
sg68
(lp2349
g61
(g82
g63
NtRp2350
(dp2351
g66
(dp2352
sg75
g2346
sg68
(lp2353
g61
(g62
g63
NtRp2354
(dp2355
g66
(dp2356
g74
I3
ssg75
g2350
sg68
(lp2357
S'7'
asbasbasbag61
(g77
g63
NtRp2358
(dp2359
g66
(dp2360
sg75
g2317
sg68
(lp2361
g61
(g82
g63
NtRp2362
(dp2363
g66
(dp2364
sg75
g2358
sg68
(lp2365
g61
(g62
g63
NtRp2366
(dp2367
g66
(dp2368
g74
I3
ssg75
g2362
sg68
(lp2369
S'datetime.datetime(2012, 3, 4, 22, 12, 8)'
p2370
asbasbasbag61
(g77
g63
NtRp2371
(dp2372
g66
(dp2373
sg75
g2317
sg68
(lp2374
g61
(g82
g63
NtRp2375
(dp2376
g66
(dp2377
sg75
g2371
sg68
(lp2378
g61
(g62
g63
NtRp2379
(dp2380
g66
(dp2381
g74
I3
ssg75
g2375
sg68
(lp2382
g1772
asbasbasbasbasbasbasbasbasbasbasbag61
(g77
g63
NtRp2383
(dp2384
g66
(dp2385
sg75
g71
sg68
(lp2386
g61
(g82
g63
NtRp2387
(dp2388
g66
(dp2389
g86
g87
ssg75
g2383
sg68
(lp2390
S'is_https'
p2391
asbag61
(g82
g63
NtRp2392
(dp2393
g66
(dp2394
g93
g94
ssg75
g2383
sg68
(lp2395
S':'
asbag61
(g82
g63
NtRp2396
(dp2397
g66
(dp2398
sg75
g2383
sg68
(lp2399
g61
(g62
g63
NtRp2400
(dp2401
g66
(dp2402
g74
I5
ssg75
g2396
sg68
(lp2403
g104
asbasbasbag61
(g77
g63
NtRp2404
(dp2405
g66
(dp2406
sg75
g71
sg68
(lp2407
g61
(g82
g63
NtRp2408
(dp2409
g66
(dp2410
g86
g87
ssg75
g2404
sg68
(lp2411
S'is_local'
p2412
asbag61
(g82
g63
NtRp2413
(dp2414
g66
(dp2415
g93
g94
ssg75
g2404
sg68
(lp2416
S':'
asbag61
(g82
g63
NtRp2417
(dp2418
g66
(dp2419
sg75
g2404
sg68
(lp2420
g61
(g62
g63
NtRp2421
(dp2422
g66
(dp2423
g74
I5
ssg75
g2417
sg68
(lp2424
g1881
asbasbasbag61
(g77
g63
NtRp2425
(dp2426
g66
(dp2427
sg75
g71
sg68
(lp2428
g61
(g82
g63
NtRp2429
(dp2430
g66
(dp2431
g86
g87
ssg75
g2425
sg68
(lp2432
S'is_restful'
p2433
asbag61
(g82
g63
NtRp2434
(dp2435
g66
(dp2436
g93
g94
ssg75
g2425
sg68
(lp2437
S':'
asbag61
(g82
g63
NtRp2438
(dp2439
g66
(dp2440
sg75
g2425
sg68
(lp2441
g61
(g62
g63
NtRp2442
(dp2443
g66
(dp2444
g74
I5
ssg75
g2438
sg68
(lp2445
g104
asbasbasbag61
(g77
g63
NtRp2446
(dp2447
g66
(dp2448
sg75
g71
sg68
(lp2449
g61
(g82
g63
NtRp2450
(dp2451
g66
(dp2452
g86
g87
ssg75
g2446
sg68
(lp2453
S'now'
p2454
asbag61
(g82
g63
NtRp2455
(dp2456
g66
(dp2457
g93
g94
ssg75
g2446
sg68
(lp2458
S':'
asbag61
(g82
g63
NtRp2459
(dp2460
g66
(dp2461
sg75
g2446
sg68
(lp2462
g61
(g62
g63
NtRp2463
(dp2464
g66
(dp2465
g74
I5
ssg75
g2459
sg68
(lp2466
S'datetime.datetime(2012, 4, 18, 18, 32, 8, 807200)'
p2467
asbasbasbag61
(g77
g63
NtRp2468
(dp2469
g66
(dp2470
sg75
g71
sg68
(lp2471
g61
(g82
g63
NtRp2472
(dp2473
g66
(dp2474
g86
g87
ssg75
g2468
sg68
(lp2475
S'post_vars'
p2476
asbag61
(g82
g63
NtRp2477
(dp2478
g66
(dp2479
g93
g94
ssg75
g2468
sg68
(lp2480
S':'
asbag61
(g82
g63
NtRp2481
(dp2482
g66
(dp2483
sg75
g2468
sg68
(lp2484
g61
(g62
g63
NtRp2485
(dp2486
g66
(dp2487
g74
I5
ssg75
g2481
sg68
(lp2488
g61
(g70
g63
NtRp2489
(dp2490
g66
(dp2491
g74
I4
ssg75
Nsg68
(lp2492
sbasbasbasbag61
(g77
g63
NtRp2493
(dp2494
g66
(dp2495
sg75
g71
sg68
(lp2496
g61
(g82
g63
NtRp2497
(dp2498
g66
(dp2499
g86
g87
ssg75
g2493
sg68
(lp2500
S'raw_args'
p2501
asbag61
(g82
g63
NtRp2502
(dp2503
g66
(dp2504
g93
g94
ssg75
g2493
sg68
(lp2505
S':'
asbag61
(g82
g63
NtRp2506
(dp2507
g66
(dp2508
sg75
g2493
sg68
(lp2509
g61
(g62
g63
NtRp2510
(dp2511
g66
(dp2512
g74
I5
ssg75
g2506
sg68
(lp2513
g163
asbasbasbag61
(g77
g63
NtRp2514
(dp2515
g66
(dp2516
sg75
g71
sg68
(lp2517
g61
(g82
g63
NtRp2518
(dp2519
g66
(dp2520
g86
g87
ssg75
g2514
sg68
(lp2521
S'url'
p2522
asbag61
(g82
g63
NtRp2523
(dp2524
g66
(dp2525
g93
g94
ssg75
g2514
sg68
(lp2526
S':'
asbag61
(g82
g63
NtRp2527
(dp2528
g66
(dp2529
sg75
g2514
sg68
(lp2530
g61
(g62
g63
NtRp2531
(dp2532
g66
(dp2533
g74
I5
ssg75
g2527
sg68
(lp2534
S'/woppi/default/user/register'
p2535
asbasbasbag61
(g77
g63
NtRp2536
(dp2537
g66
(dp2538
sg75
g71
sg68
(lp2539
g61
(g82
g63
NtRp2540
(dp2541
g66
(dp2542
g86
g87
ssg75
g2536
sg68
(lp2543
S'utcnow'
p2544
asbag61
(g82
g63
NtRp2545
(dp2546
g66
(dp2547
g93
g94
ssg75
g2536
sg68
(lp2548
S':'
asbag61
(g82
g63
NtRp2549
(dp2550
g66
(dp2551
sg75
g2536
sg68
(lp2552
g61
(g62
g63
NtRp2553
(dp2554
g66
(dp2555
g74
I5
ssg75
g2549
sg68
(lp2556
S'datetime.datetime(2012, 4, 18, 21, 32, 8, 807238)'
p2557
asbasbasbag61
(g77
g63
NtRp2558
(dp2559
g66
(dp2560
sg75
g71
sg68
(lp2561
g61
(g82
g63
NtRp2562
(dp2563
g66
(dp2564
g86
g87
ssg75
g2558
sg68
(lp2565
S'uuid'
p2566
asbag61
(g82
g63
NtRp2567
(dp2568
g66
(dp2569
g93
g94
ssg75
g2558
sg68
(lp2570
S':'
asbag61
(g82
g63
NtRp2571
(dp2572
g66
(dp2573
sg75
g2558
sg68
(lp2574
g61
(g62
g63
NtRp2575
(dp2576
g66
(dp2577
g74
I5
ssg75
g2571
sg68
(lp2578
S'woppi/127.0.0.1.2012-04-18.18-32-08.a662170b-0dd8-481c-b7d6-82de49da37d4'
p2579
asbasbasbag61
(g77
g63
NtRp2580
(dp2581
g66
(dp2582
sg75
g71
sg68
(lp2583
g61
(g82
g63
NtRp2584
(dp2585
g66
(dp2586
g86
g87
ssg75
g2580
sg68
(lp2587
S'vars'
p2588
asbag61
(g82
g63
NtRp2589
(dp2590
g66
(dp2591
g93
g94
ssg75
g2580
sg68
(lp2592
S':'
asbag61
(g82
g63
NtRp2593
(dp2594
g66
(dp2595
sg75
g2580
sg68
(lp2596
g61
(g62
g63
NtRp2597
(dp2598
g66
(dp2599
g74
I5
ssg75
g2593
sg68
(lp2600
g61
(g70
g63
NtRp2601
(dp2602
g66
(dp2603
g74
I4
ssg75
Nsg68
(lp2604
sbasbasbasbag61
(g77
g63
NtRp2605
(dp2606
g66
(dp2607
sg75
g71
sg68
(lp2608
g61
(g82
g63
NtRp2609
(dp2610
g66
(dp2611
g86
g87
ssg75
g2605
sg68
(lp2612
S'wsgi'
p2613
asbag61
(g82
g63
NtRp2614
(dp2615
g66
(dp2616
g93
g94
ssg75
g2605
sg68
(lp2617
S':'
asbag61
(g82
g63
NtRp2618
(dp2619
g66
(dp2620
sg75
g2605
sg68
(lp2621
g61
(g62
g63
NtRp2622
(dp2623
g66
(dp2624
g74
I5
ssg75
g2618
sg68
(lp2625
g61
(g70
g63
NtRp2626
(dp2627
g66
(dp2628
g74
I4
ssg75
Nsg68
(lp2629
g61
(g77
g63
NtRp2630
(dp2631
g66
(dp2632
sg75
g2626
sg68
(lp2633
g61
(g82
g63
NtRp2634
(dp2635
g66
(dp2636
g86
g87
ssg75
g2630
sg68
(lp2637
S'environ'
p2638
asbag61
(g82
g63
NtRp2639
(dp2640
g66
(dp2641
g93
g94
ssg75
g2630
sg68
(lp2642
S':'
asbag61
(g82
g63
NtRp2643
(dp2644
g66
(dp2645
sg75
g2630
sg68
(lp2646
g61
(g62
g63
NtRp2647
(dp2648
g66
(dp2649
g74
I4
ssg75
g2643
sg68
(lp2650
g61
(g70
g63
NtRp2651
(dp2652
g66
(dp2653
g74
I3
ssg75
Nsg68
(lp2654
g61
(g77
g63
NtRp2655
(dp2656
g66
(dp2657
sg75
g2651
sg68
(lp2658
g61
(g82
g63
NtRp2659
(dp2660
g66
(dp2661
g86
g87
ssg75
g2655
sg68
(lp2662
S'HTTP_ACCEPT'
p2663
asbag61
(g82
g63
NtRp2664
(dp2665
g66
(dp2666
g93
g94
ssg75
g2655
sg68
(lp2667
S':'
asbag61
(g82
g63
NtRp2668
(dp2669
g66
(dp2670
sg75
g2655
sg68
(lp2671
g61
(g62
g63
NtRp2672
(dp2673
g66
(dp2674
g74
I3
ssg75
g2668
sg68
(lp2675
g1205
asbasbasbag61
(g77
g63
NtRp2676
(dp2677
g66
(dp2678
sg75
g2651
sg68
(lp2679
g61
(g82
g63
NtRp2680
(dp2681
g66
(dp2682
g86
g87
ssg75
g2676
sg68
(lp2683
S'HTTP_ACCEPT_ENCODING'
p2684
asbag61
(g82
g63
NtRp2685
(dp2686
g66
(dp2687
g93
g94
ssg75
g2676
sg68
(lp2688
S':'
asbag61
(g82
g63
NtRp2689
(dp2690
g66
(dp2691
sg75
g2676
sg68
(lp2692
g61
(g62
g63
NtRp2693
(dp2694
g66
(dp2695
g74
I3
ssg75
g2689
sg68
(lp2696
g1227
asbasbasbag61
(g77
g63
NtRp2697
(dp2698
g66
(dp2699
sg75
g2651
sg68
(lp2700
g61
(g82
g63
NtRp2701
(dp2702
g66
(dp2703
g86
g87
ssg75
g2697
sg68
(lp2704
S'HTTP_ACCEPT_LANGUAGE'
p2705
asbag61
(g82
g63
NtRp2706
(dp2707
g66
(dp2708
g93
g94
ssg75
g2697
sg68
(lp2709
S':'
asbag61
(g82
g63
NtRp2710
(dp2711
g66
(dp2712
sg75
g2697
sg68
(lp2713
g61
(g62
g63
NtRp2714
(dp2715
g66
(dp2716
g74
I3
ssg75
g2710
sg68
(lp2717
g1249
asbasbasbag61
(g77
g63
NtRp2718
(dp2719
g66
(dp2720
sg75
g2651
sg68
(lp2721
g61
(g82
g63
NtRp2722
(dp2723
g66
(dp2724
g86
g87
ssg75
g2718
sg68
(lp2725
S'HTTP_CACHE_CONTROL'
p2726
asbag61
(g82
g63
NtRp2727
(dp2728
g66
(dp2729
g93
g94
ssg75
g2718
sg68
(lp2730
S':'
asbag61
(g82
g63
NtRp2731
(dp2732
g66
(dp2733
sg75
g2718
sg68
(lp2734
g61
(g62
g63
NtRp2735
(dp2736
g66
(dp2737
g74
I3
ssg75
g2731
sg68
(lp2738
g1271
asbasbasbag61
(g77
g63
NtRp2739
(dp2740
g66
(dp2741
sg75
g2651
sg68
(lp2742
g61
(g82
g63
NtRp2743
(dp2744
g66
(dp2745
g86
g87
ssg75
g2739
sg68
(lp2746
S'HTTP_CONNECTION'
p2747
asbag61
(g82
g63
NtRp2748
(dp2749
g66
(dp2750
g93
g94
ssg75
g2739
sg68
(lp2751
S':'
asbag61
(g82
g63
NtRp2752
(dp2753
g66
(dp2754
sg75
g2739
sg68
(lp2755
g61
(g62
g63
NtRp2756
(dp2757
g66
(dp2758
g74
I3
ssg75
g2752
sg68
(lp2759
g1293
asbasbasbag61
(g77
g63
NtRp2760
(dp2761
g66
(dp2762
sg75
g2651
sg68
(lp2763
g61
(g82
g63
NtRp2764
(dp2765
g66
(dp2766
g86
g87
ssg75
g2760
sg68
(lp2767
S'HTTP_COOKIE'
p2768
asbag61
(g82
g63
NtRp2769
(dp2770
g66
(dp2771
g93
g94
ssg75
g2760
sg68
(lp2772
S':'
asbag61
(g82
g63
NtRp2773
(dp2774
g66
(dp2775
sg75
g2760
sg68
(lp2776
g61
(g62
g63
NtRp2777
(dp2778
g66
(dp2779
g74
I3
ssg75
g2773
sg68
(lp2780
g1315
asbasbasbag61
(g77
g63
NtRp2781
(dp2782
g66
(dp2783
sg75
g2651
sg68
(lp2784
g61
(g82
g63
NtRp2785
(dp2786
g66
(dp2787
g86
g87
ssg75
g2781
sg68
(lp2788
S'HTTP_HOST'
p2789
asbag61
(g82
g63
NtRp2790
(dp2791
g66
(dp2792
g93
g94
ssg75
g2781
sg68
(lp2793
S':'
asbag61
(g82
g63
NtRp2794
(dp2795
g66
(dp2796
sg75
g2781
sg68
(lp2797
g61
(g62
g63
NtRp2798
(dp2799
g66
(dp2800
g74
I3
ssg75
g2794
sg68
(lp2801
g1337
asbasbasbag61
(g77
g63
NtRp2802
(dp2803
g66
(dp2804
sg75
g2651
sg68
(lp2805
g61
(g82
g63
NtRp2806
(dp2807
g66
(dp2808
g86
g87
ssg75
g2802
sg68
(lp2809
S'HTTP_REFERER'
p2810
asbag61
(g82
g63
NtRp2811
(dp2812
g66
(dp2813
g93
g94
ssg75
g2802
sg68
(lp2814
S':'
asbag61
(g82
g63
NtRp2815
(dp2816
g66
(dp2817
sg75
g2802
sg68
(lp2818
g61
(g62
g63
NtRp2819
(dp2820
g66
(dp2821
g74
I3
ssg75
g2815
sg68
(lp2822
g1359
asbasbasbag61
(g77
g63
NtRp2823
(dp2824
g66
(dp2825
sg75
g2651
sg68
(lp2826
g61
(g82
g63
NtRp2827
(dp2828
g66
(dp2829
g86
g87
ssg75
g2823
sg68
(lp2830
S'HTTP_USER_AGENT'
p2831
asbag61
(g82
g63
NtRp2832
(dp2833
g66
(dp2834
g93
g94
ssg75
g2823
sg68
(lp2835
S':'
asbag61
(g82
g63
NtRp2836
(dp2837
g66
(dp2838
sg75
g2823
sg68
(lp2839
g61
(g62
g63
NtRp2840
(dp2841
g66
(dp2842
g74
I3
ssg75
g2836
sg68
(lp2843
g1381
asbasbasbag61
(g77
g63
NtRp2844
(dp2845
g66
(dp2846
sg75
g2651
sg68
(lp2847
g61
(g82
g63
NtRp2848
(dp2849
g66
(dp2850
g86
g87
ssg75
g2844
sg68
(lp2851
S'PATH_INFO'
p2852
asbag61
(g82
g63
NtRp2853
(dp2854
g66
(dp2855
g93
g94
ssg75
g2844
sg68
(lp2856
S':'
asbag61
(g82
g63
NtRp2857
(dp2858
g66
(dp2859
sg75
g2844
sg68
(lp2860
g61
(g62
g63
NtRp2861
(dp2862
g66
(dp2863
g74
I3
ssg75
g2857
sg68
(lp2864
g1445
asbasbasbag61
(g77
g63
NtRp2865
(dp2866
g66
(dp2867
sg75
g2651
sg68
(lp2868
g61
(g82
g63
NtRp2869
(dp2870
g66
(dp2871
g86
g87
ssg75
g2865
sg68
(lp2872
S'QUERY_STRING'
p2873
asbag61
(g82
g63
NtRp2874
(dp2875
g66
(dp2876
g93
g94
ssg75
g2865
sg68
(lp2877
S':'
asbag61
(g82
g63
NtRp2878
(dp2879
g66
(dp2880
sg75
g2865
sg68
(lp2881
g61
(g62
g63
NtRp2882
(dp2883
g66
(dp2884
g74
I3
ssg75
g2878
sg68
(lp2885
g1467
asbasbasbag61
(g77
g63
NtRp2886
(dp2887
g66
(dp2888
sg75
g2651
sg68
(lp2889
g61
(g82
g63
NtRp2890
(dp2891
g66
(dp2892
g86
g87
ssg75
g2886
sg68
(lp2893
S'REMOTE_ADDR'
p2894
asbag61
(g82
g63
NtRp2895
(dp2896
g66
(dp2897
g93
g94
ssg75
g2886
sg68
(lp2898
S':'
asbag61
(g82
g63
NtRp2899
(dp2900
g66
(dp2901
sg75
g2886
sg68
(lp2902
g61
(g62
g63
NtRp2903
(dp2904
g66
(dp2905
g74
I3
ssg75
g2899
sg68
(lp2906
g207
asbasbasbag61
(g77
g63
NtRp2907
(dp2908
g66
(dp2909
sg75
g2651
sg68
(lp2910
g61
(g82
g63
NtRp2911
(dp2912
g66
(dp2913
g86
g87
ssg75
g2907
sg68
(lp2914
S'REMOTE_PORT'
p2915
asbag61
(g82
g63
NtRp2916
(dp2917
g66
(dp2918
g93
g94
ssg75
g2907
sg68
(lp2919
S':'
asbag61
(g82
g63
NtRp2920
(dp2921
g66
(dp2922
sg75
g2907
sg68
(lp2923
g61
(g62
g63
NtRp2924
(dp2925
g66
(dp2926
g74
I3
ssg75
g2920
sg68
(lp2927
g1510
asbasbasbag61
(g77
g63
NtRp2928
(dp2929
g66
(dp2930
sg75
g2651
sg68
(lp2931
g61
(g82
g63
NtRp2932
(dp2933
g66
(dp2934
g86
g87
ssg75
g2928
sg68
(lp2935
S'REQUEST_METHOD'
p2936
asbag61
(g82
g63
NtRp2937
(dp2938
g66
(dp2939
g93
g94
ssg75
g2928
sg68
(lp2940
S':'
asbag61
(g82
g63
NtRp2941
(dp2942
g66
(dp2943
sg75
g2928
sg68
(lp2944
g61
(g62
g63
NtRp2945
(dp2946
g66
(dp2947
g74
I3
ssg75
g2941
sg68
(lp2948
g1532
asbasbasbag61
(g77
g63
NtRp2949
(dp2950
g66
(dp2951
sg75
g2651
sg68
(lp2952
g61
(g82
g63
NtRp2953
(dp2954
g66
(dp2955
g86
g87
ssg75
g2949
sg68
(lp2956
S'SCRIPT_NAME'
p2957
asbag61
(g82
g63
NtRp2958
(dp2959
g66
(dp2960
g93
g94
ssg75
g2949
sg68
(lp2961
S':'
asbag61
(g82
g63
NtRp2962
(dp2963
g66
(dp2964
sg75
g2949
sg68
(lp2965
g61
(g62
g63
NtRp2966
(dp2967
g66
(dp2968
g74
I3
ssg75
g2962
sg68
(lp2969
S''
asbasbasbag61
(g77
g63
NtRp2970
(dp2971
g66
(dp2972
sg75
g2651
sg68
(lp2973
g61
(g82
g63
NtRp2974
(dp2975
g66
(dp2976
g86
g87
ssg75
g2970
sg68
(lp2977
S'SERVER_NAME'
p2978
asbag61
(g82
g63
NtRp2979
(dp2980
g66
(dp2981
g93
g94
ssg75
g2970
sg68
(lp2982
S':'
asbag61
(g82
g63
NtRp2983
(dp2984
g66
(dp2985
sg75
g2970
sg68
(lp2986
g61
(g62
g63
NtRp2987
(dp2988
g66
(dp2989
g74
I3
ssg75
g2983
sg68
(lp2990
g1575
asbasbasbag61
(g77
g63
NtRp2991
(dp2992
g66
(dp2993
sg75
g2651
sg68
(lp2994
g61
(g82
g63
NtRp2995
(dp2996
g66
(dp2997
g86
g87
ssg75
g2991
sg68
(lp2998
S'SERVER_PORT'
p2999
asbag61
(g82
g63
NtRp3000
(dp3001
g66
(dp3002
g93
g94
ssg75
g2991
sg68
(lp3003
S':'
asbag61
(g82
g63
NtRp3004
(dp3005
g66
(dp3006
sg75
g2991
sg68
(lp3007
g61
(g62
g63
NtRp3008
(dp3009
g66
(dp3010
g74
I3
ssg75
g3004
sg68
(lp3011
g1597
asbasbasbag61
(g77
g63
NtRp3012
(dp3013
g66
(dp3014
sg75
g2651
sg68
(lp3015
g61
(g82
g63
NtRp3016
(dp3017
g66
(dp3018
g86
g87
ssg75
g3012
sg68
(lp3019
S'SERVER_PROTOCOL'
p3020
asbag61
(g82
g63
NtRp3021
(dp3022
g66
(dp3023
g93
g94
ssg75
g3012
sg68
(lp3024
S':'
asbag61
(g82
g63
NtRp3025
(dp3026
g66
(dp3027
sg75
g3012
sg68
(lp3028
g61
(g62
g63
NtRp3029
(dp3030
g66
(dp3031
g74
I3
ssg75
g3025
sg68
(lp3032
g1619
asbasbasbag61
(g77
g63
NtRp3033
(dp3034
g66
(dp3035
sg75
g2651
sg68
(lp3036
g61
(g82
g63
NtRp3037
(dp3038
g66
(dp3039
g86
g87
ssg75
g3033
sg68
(lp3040
S'SERVER_SOFTWARE'
p3041
asbag61
(g82
g63
NtRp3042
(dp3043
g66
(dp3044
g93
g94
ssg75
g3033
sg68
(lp3045
S':'
asbag61
(g82
g63
NtRp3046
(dp3047
g66
(dp3048
sg75
g3033
sg68
(lp3049
g61
(g62
g63
NtRp3050
(dp3051
g66
(dp3052
g74
I3
ssg75
g3046
sg68
(lp3053
g1641
asbasbasbag61
(g77
g63
NtRp3054
(dp3055
g66
(dp3056
sg75
g2651
sg68
(lp3057
g61
(g82
g63
NtRp3058
(dp3059
g66
(dp3060
g86
g87
ssg75
g3054
sg68
(lp3061
S'wsgi.errors'
p3062
asbag61
(g82
g63
NtRp3063
(dp3064
g66
(dp3065
g93
g94
ssg75
g3054
sg68
(lp3066
S':'
asbag61
(g82
g63
NtRp3067
(dp3068
g66
(dp3069
sg75
g3054
sg68
(lp3070
g61
(g62
g63
NtRp3071
(dp3072
g66
(dp3073
g74
I3
ssg75
g3067
sg68
(lp3074
S"<open file '<stderr>', mode 'w' at 0x7fcb81470270>"
p3075
asbasbasbag61
(g77
g63
NtRp3076
(dp3077
g66
(dp3078
sg75
g2651
sg68
(lp3079
g61
(g82
g63
NtRp3080
(dp3081
g66
(dp3082
g86
g87
ssg75
g3076
sg68
(lp3083
S'wsgi.file_wrapper'
p3084
asbag61
(g82
g63
NtRp3085
(dp3086
g66
(dp3087
g93
g94
ssg75
g3076
sg68
(lp3088
S':'
asbag61
(g82
g63
NtRp3089
(dp3090
g66
(dp3091
sg75
g3076
sg68
(lp3092
g61
(g62
g63
NtRp3093
(dp3094
g66
(dp3095
g74
I3
ssg75
g3089
sg68
(lp3096
S'<class wsgiref.util.FileWrapper at 0x2f870b8>'
p3097
asbasbasbag61
(g77
g63
NtRp3098
(dp3099
g66
(dp3100
sg75
g2651
sg68
(lp3101
g61
(g82
g63
NtRp3102
(dp3103
g66
(dp3104
g86
g87
ssg75
g3098
sg68
(lp3105
S'wsgi.input'
p3106
asbag61
(g82
g63
NtRp3107
(dp3108
g66
(dp3109
g93
g94
ssg75
g3098
sg68
(lp3110
S':'
asbag61
(g82
g63
NtRp3111
(dp3112
g66
(dp3113
sg75
g3098
sg68
(lp3114
g61
(g62
g63
NtRp3115
(dp3116
g66
(dp3117
g74
I3
ssg75
g3111
sg68
(lp3118
S'<cStringIO.StringO object at 0x394aa78>'
p3119
asbasbasbag61
(g77
g63
NtRp3120
(dp3121
g66
(dp3122
sg75
g2651
sg68
(lp3123
g61
(g82
g63
NtRp3124
(dp3125
g66
(dp3126
g86
g87
ssg75
g3120
sg68
(lp3127
S'wsgi.multiprocess'
p3128
asbag61
(g82
g63
NtRp3129
(dp3130
g66
(dp3131
g93
g94
ssg75
g3120
sg68
(lp3132
S':'
asbag61
(g82
g63
NtRp3133
(dp3134
g66
(dp3135
sg75
g3120
sg68
(lp3136
g61
(g62
g63
NtRp3137
(dp3138
g66
(dp3139
g74
I3
ssg75
g3133
sg68
(lp3140
g104
asbasbasbag61
(g77
g63
NtRp3141
(dp3142
g66
(dp3143
sg75
g2651
sg68
(lp3144
g61
(g82
g63
NtRp3145
(dp3146
g66
(dp3147
g86
g87
ssg75
g3141
sg68
(lp3148
S'wsgi.multithread'
p3149
asbag61
(g82
g63
NtRp3150
(dp3151
g66
(dp3152
g93
g94
ssg75
g3141
sg68
(lp3153
S':'
asbag61
(g82
g63
NtRp3154
(dp3155
g66
(dp3156
sg75
g3141
sg68
(lp3157
g61
(g62
g63
NtRp3158
(dp3159
g66
(dp3160
g74
I3
ssg75
g3154
sg68
(lp3161
g1881
asbasbasbag61
(g77
g63
NtRp3162
(dp3163
g66
(dp3164
sg75
g2651
sg68
(lp3165
g61
(g82
g63
NtRp3166
(dp3167
g66
(dp3168
g86
g87
ssg75
g3162
sg68
(lp3169
S'wsgi.run_once'
p3170
asbag61
(g82
g63
NtRp3171
(dp3172
g66
(dp3173
g93
g94
ssg75
g3162
sg68
(lp3174
S':'
asbag61
(g82
g63
NtRp3175
(dp3176
g66
(dp3177
sg75
g3162
sg68
(lp3178
g61
(g62
g63
NtRp3179
(dp3180
g66
(dp3181
g74
I3
ssg75
g3175
sg68
(lp3182
g104
asbasbasbag61
(g77
g63
NtRp3183
(dp3184
g66
(dp3185
sg75
g2651
sg68
(lp3186
g61
(g82
g63
NtRp3187
(dp3188
g66
(dp3189
g86
g87
ssg75
g3183
sg68
(lp3190
S'wsgi.url_scheme'
p3191
asbag61
(g82
g63
NtRp3192
(dp3193
g66
(dp3194
g93
g94
ssg75
g3183
sg68
(lp3195
S':'
asbag61
(g82
g63
NtRp3196
(dp3197
g66
(dp3198
sg75
g3183
sg68
(lp3199
g61
(g62
g63
NtRp3200
(dp3201
g66
(dp3202
g74
I3
ssg75
g3196
sg68
(lp3203
g1924
asbasbasbag61
(g77
g63
NtRp3204
(dp3205
g66
(dp3206
sg75
g2651
sg68
(lp3207
g61
(g82
g63
NtRp3208
(dp3209
g66
(dp3210
g86
g87
ssg75
g3204
sg68
(lp3211
S'wsgi.version'
p3212
asbag61
(g82
g63
NtRp3213
(dp3214
g66
(dp3215
g93
g94
ssg75
g3204
sg68
(lp3216
S':'
asbag61
(g82
g63
NtRp3217
(dp3218
g66
(dp3219
sg75
g3204
sg68
(lp3220
g61
(g62
g63
NtRp3221
(dp3222
g66
(dp3223
g74
I3
ssg75
g3217
sg68
(lp3224
S'1'
asbasbasbasbasbasbasbasbasbasbasbasbasbsS'frames'
p3225
(lp3226
(dp3227
S'file'
p3228
S'/home/marco/projects/final/web2py/gluon/restricted.py'
p3229
sS'dump'
p3230
(dp3231
S'environment'
p3232
S"{'A': <class 'gluon.html.A'>, 'Auth': <class 'gluon.tools.Auth'>, 'B': <class 'gluon.html.B'>, 'BEAUTIFY': <class 'gluon.html.BEAUTIFY'>, 'BODY': <class 'gluon.html.BODY'>, 'BR': <class 'gluon.html.BR'>, 'BUTTON': <class 'gluon.html.BUTTON'>, 'CAT': <class 'gluon.html.CAT'>, 'CENTER': <class 'gluon.html.CENTER'>, 'CLEANUP': <class 'gluon.validators.CLEANUP'>, ...}"
p3233
sS'ccode'
p3234
S'<code object <module> at 0x38af8b0, file "/home/.../web2py/applications/woppi/models/db.py", line 2>'
p3235
ssS'lnum'
p3236
I205
sS'lines'
p3237
(dp3238
I200
S'    try:'
p3239
sI201
S'        if type(code) == types.CodeType:'
p3240
sI202
S'            ccode = code'
p3241
sI203
S'        else:'
p3242
sI204
S'            ccode = compile2(code,layer)'
p3243
sI205
S'        exec ccode in environment'
p3244
sI206
S'    except HTTP:'
p3245
sI207
S'        raise'
p3246
sI208
S'    except RestrictedError:'
p3247
sI209
S'        # do not encapsulate (obfuscate) the original RestrictedError'
p3248
ssS'call'
p3249
S"(code='# -*- coding: utf-8 -*-\\nfrom gluon.tools import ...##############################################\\n\\n\\n', environment={'A': <class 'gluon.html.A'>, 'Auth': <class 'gluon.tools.Auth'>, 'B': <class 'gluon.html.B'>, 'BEAUTIFY': <class 'gluon.html.BEAUTIFY'>, 'BODY': <class 'gluon.html.BODY'>, 'BR': <class 'gluon.html.BR'>, 'BUTTON': <class 'gluon.html.BUTTON'>, 'CAT': <class 'gluon.html.CAT'>, 'CENTER': <class 'gluon.html.CENTER'>, 'CLEANUP': <class 'gluon.validators.CLEANUP'>, ...}, layer='/home/marco/projects/final/web2py/applications/woppi/models/db.py')"
p3250
sS'func'
p3251
S'restricted'
p3252
sa(dp3253
g3228
S'/home/marco/projects/final/web2py/applications/woppi/models/db.py'
p3254
sg3230
(dp3255
S'builtinFalse'
p3256
g104
sS'default'
p3257
S'undefined'
p3258
sS'readable'
p3259
g3258
sS'writable'
p3260
g3258
sS'Field'
p3261
S"<class 'gluon.dal.Field'>"
p3262
sS'length'
p3263
g3258
ssg3236
I50
sg3237
(dp3264
I45
S"    Field('city'),"
p3265
sI46
S"    Field('zip'),"
p3266
sI47
S"    Field('phone'),"
p3267
sI48
S"    Field('registration_key', length=512, writable=False, readable=False, default=''),"
p3268
sI49
S"    Field('reset_password_key', length=512, writable=False, readable=False, default=''),"
p3269
sI50
S"    Field('registration_id', length=512, writable=False, readable=False, default=''))"
p3270
sI51
S''
sI52
S'## do not forget validators'
p3271
sI53
S'custom_auth_table = db[auth.settings.table_user_name] # get the custom_auth_table'
p3272
sI54
S'custom_auth_table.first_name.requires = IS_NOT_EMPTY(error_message=auth.messages.is_empty)'
p3273
ssg3249
S'()'
p3274
sg3251
S'<module>'
p3275
sa(dp3276
g3228
S'/home/marco/projects/final/web2py/gluon/dal.py'
p3277
sg3230
(dp3278
S'polymodel'
p3279
S'None'
p3280
ssg3236
I6320
sg3237
(dp3281
I6315
S"        if migrate or self._adapter.dbengine=='google:datastore':"
p3282
sI6316
S'            try:'
p3283
sI6317
S'                sql_locker.acquire()'
p3284
sI6318
S'                self._adapter.create_table(t,migrate=migrate,'
p3285
sI6319
S'                                           fake_migrate=fake_migrate,'
p3286
sI6320
S'                                           polymodel=polymodel)'
p3287
sI6321
S'            finally:'
p3288
sI6322
S'                sql_locker.release()'
p3289
sI6323
S'        else:'
p3290
sI6324
S'            t._dbt = None'
p3291
ssg3249
S"(self=<DAL {'_migrate_enabled': True, '_lastsql': 'ALT...'_uri_hash': 'c8b669d15150d7109e5f7ab36744a5b7'}>, tablename='auth_user', *fields=(<gluon.dal.Field object>, <gluon.dal.Field object>, <gluon.dal.Field object>, <gluon.dal.Field object>, <gluon.dal.Field object>, <gluon.dal.Field object>, <gluon.dal.Field object>, <gluon.dal.Field object>, <gluon.dal.Field object>, <gluon.dal.Field object>, <gluon.dal.Field object>, <gluon.dal.Field object>), **args={})"
p3292
sg3251
S'define_table'
p3293
sa(dp3294
g3228
S'/home/marco/projects/final/web2py/gluon/dal.py'
p3295
sg3230
(dp3296
S'fake_migrate'
p3297
g104
ssg3236
I742
sg3237
(dp3298
I737
S'            self.file_close(tfile)'
p3299
sI738
S'            if sql_fields != sql_fields_old:'
p3300
sI739
S'                self.migrate_table(table,'
p3301
sI740
S'                                   sql_fields, sql_fields_old,'
p3302
sI741
S'                                   sql_fields_aux, logfile,'
p3303
sI742
S'                                   fake_migrate=fake_migrate)'
p3304
sI743
S'        self.file_close(logfile)'
p3305
sI744
S'        return query'
p3306
sI745
S''
sI746
S'    def migrate_table('
p3307
ssg3249
S"(self=<gluon.dal.SQLiteAdapter object>, table=<Table {'_db': <DAL {'_migrate_enabled': True, '...ion_key': <gluon.dal.Field object at 0x38b1710>}>, migrate=True, fake_migrate=False, polymodel=None)"
p3308
sg3251
S'create_table'
p3309
sa(dp3310
g3228
S'/home/marco/projects/final/web2py/gluon/dal.py'
p3311
sg3230
(dp3312
S'self'
p3313
S'<gluon.dal.SQLiteAdapter object>'
p3314
sS'self.execute'
p3315
S'<bound method SQLiteAdapter.execute of <gluon.dal.SQLiteAdapter object>>'
p3316
sS'sub_query'
p3317
S"'ALTER TABLE auth_user ADD username CHAR(512) UNIQUE;'"
p3318
ssg3236
I830
sg3237
(dp3319
I832
S'                        # in one transaction so we must commit partial transactions and'
p3320
sI833
S'                        # update table._dbt after alter table.'
p3321
sI834
S'                        if table._db._adapter.commit_on_alter_table:'
p3322
sI825
S'                              % datetime.datetime.today().isoformat())'
p3323
sI826
S"                table._db['_lastsql'] = '\\n'.join(query)"
p3324
sI827
S'                for sub_query in query:'
p3325
sI828
S"                    logfile.write(sub_query + '\\n')"
p3326
sI829
S'                    if not fake_migrate:'
p3327
sI830
S'                        self.execute(sub_query)'
p3328
sI831
S'                        # Caveat: mysql, oracle and firebird do not allow multiple alter table'
p3329
ssg3249
S"(self=<gluon.dal.SQLiteAdapter object>, table=<Table {'_db': <DAL {'_migrate_enabled': True, '...ion_key': <gluon.dal.Field object at 0x38b1710>}>, sql_fields={'address': {'sortable': 7, 'sql': 'CHAR(512)', 'type': 'string'}, 'apellido': {'sortable': 3, 'sql': 'CHAR(128)', 'type': 'string'}, 'city': {'sortable': 8, 'sql': 'CHAR(512)', 'type': 'string'}, 'email': {'sortable': 5, 'sql': 'CHAR(128)', 'type': 'string'}, 'id': {'sortable': 1, 'sql': 'INTEGER PRIMARY KEY AUTOINCREMENT', 'type': 'id'}, 'nombre': {'sortable': 2, 'sql': 'CHAR(128)', 'type': 'string'}, 'password': {'sortable': 6, 'sql': 'CHAR(512)', 'type': 'password'}, 'phone': {'sortable': 10, 'sql': 'CHAR(512)', 'type': 'string'}, 'registration_id': {'sortable': 13, 'sql': 'CHAR(512)', 'type': 'string'}, 'registration_key': {'sortable': 11, 'sql': 'CHAR(512)', 'type': 'string'}, ...}, sql_fields_old={'address': {'sortable': 6, 'sql': 'CHAR(512)', 'type': 'string'}, 'city': {'sortable': 7, 'sql': 'CHAR(512)', 'type': 'string'}, 'email': {'sortable': 4, 'sql': 'CHAR(128) UNIQUE', 'type': 'string'}, 'first_name': {'sortable': 2, 'sql': 'CHAR(128)', 'type': 'string'}, 'id': {'sortable': 1, 'sql': 'INTEGER PRIMARY KEY AUTOINCREMENT', 'type': 'id'}, 'last_name': {'sortable': 3, 'sql': 'CHAR(128)', 'type': 'string'}, 'password': {'sortable': 5, 'sql': 'CHAR(512)', 'type': 'password'}, 'phone': {'sortable': 9, 'sql': 'CHAR(512)', 'type': 'string'}, 'registration_id': {'sortable': 12, 'sql': 'CHAR(512)', 'type': 'string'}, 'registration_key': {'sortable': 10, 'sql': 'CHAR(512)', 'type': 'string'}, ...}, sql_fields_aux={'address': {'sql': 'CHAR(512)'}, 'apellido': {'sql': 'CHAR(128)'}, 'city': {'sql': 'CHAR(512)'}, 'email': {'sql': 'CHAR(128)'}, 'id': {'sql': 'INTEGER PRIMARY KEY AUTOINCREMENT'}, 'nombre': {'sql': 'CHAR(128)'}, 'password': {'sql': 'CHAR(512)'}, 'phone': {'sql': 'CHAR(512)'}, 'registration_id': {'sql': 'CHAR(512)'}, 'registration_key': {'sql': 'CHAR(512)'}, ...}, logfile=<gluon.portalocker.LockedFile object>, fake_migrate=False)"
p3330
sg3251
S'migrate_table'
p3331
sa(dp3332
g3228
S'/home/marco/projects/final/web2py/gluon/dal.py'
p3333
sg3230
(dp3334
S'a'
S"('ALTER TABLE auth_user ADD username CHAR(512) UNIQUE;',)"
p3335
sS'self'
p3336
S'<gluon.dal.SQLiteAdapter object>'
p3337
sS'b'
g21
sS'self.log_execute'
p3338
S'<bound method SQLiteAdapter.log_execute of <gluon.dal.SQLiteAdapter object>>'
p3339
ssg3236
I1392
sg3237
(dp3340
I1387
S'        self.db._timings.append((a[0],time.time()-t0))'
p3341
sI1388
S'        del self.db._timings[:-TIMINGSSIZE]'
p3342
sI1389
S'        return ret'
p3343
sI1390
S''
sI1391
S'    def execute(self, *a, **b):'
p3344
sI1392
S'        return self.log_execute(*a, **b)'
p3345
sI1393
S''
sI1394
S'    def represent(self, obj, fieldtype):'
p3346
sI1395
S'        if isinstance(obj, CALLABLETYPES):'
p3347
sI1396
S'            obj = obj()'
p3348
ssg3249
S"(self=<gluon.dal.SQLiteAdapter object>, *a=('ALTER TABLE auth_user ADD username CHAR(512) UNIQUE;',), **b={})"
p3349
sg3251
S'execute'
p3350
sa(dp3351
g3228
S'/home/marco/projects/final/web2py/gluon/dal.py'
p3352
sg3230
(dp3353
S'a'
S"('ALTER TABLE auth_user ADD username CHAR(512) UNIQUE;',)"
p3354
sS'b'
g21
sS'self'
p3355
S'<gluon.dal.SQLiteAdapter object>'
p3356
sS'ret'
p3357
g3258
sS'self.cursor'
p3358
S'<sqlite3.Cursor object>'
p3359
sS'self.cursor.execute'
p3360
S'<built-in method execute of sqlite3.Cursor object>'
p3361
ssg3236
I1386
sg3237
(dp3362
I1381
S'        self.execute(query)'
p3363
sI1382
S''
sI1383
S'    def log_execute(self, *a, **b):'
p3364
sI1384
S'        self.db._lastsql = a[0]'
p3365
sI1385
S'        t0 = time.time()'
p3366
sI1386
S'        ret = self.cursor.execute(*a, **b)'
p3367
sI1387
S'        self.db._timings.append((a[0],time.time()-t0))'
p3368
sI1388
S'        del self.db._timings[:-TIMINGSSIZE]'
p3369
sI1389
S'        return ret'
p3370
sI1390
S''
ssg3249
S"(self=<gluon.dal.SQLiteAdapter object>, *a=('ALTER TABLE auth_user ADD username CHAR(512) UNIQUE;',), **b={})"
p3371
sg3251
S'log_execute'
p3372
sasS'pyver'
p3373
S'Python 2.7.3rc2: /usr/bin/python'
p3374
sS'session'
p3375
g61
(g62
g63
NtRp3376
(dp3377
g66
(dp3378
sg68
(lp3379
g61
(g70
g63
NtRp3380
(dp3381
g66
(dp3382
g74
I5
ssg75
Nsg68
(lp3383
sbasbsS'etype'
p3384
S"<class 'sqlite3.OperationalError'>"
p3385
sS'date'
p3386
S'Wed Apr 18 18:32:08 2012'
p3387
sS'response'
p3388
g61
(g62
g63
NtRp3389
(dp3390
g66
(dp3391
sg68
(lp3392
g61
(g70
g63
NtRp3393
(dp3394
g66
(dp3395
g74
I5
ssg75
Nsg68
(lp3396
g61
(g77
g63
NtRp3397
(dp3398
g66
(dp3399
sg75
g3393
sg68
(lp3400
g61
(g82
g63
NtRp3401
(dp3402
g66
(dp3403
g86
g87
ssg75
g3397
sg68
(lp3404
g172
asbag61
(g82
g63
NtRp3405
(dp3406
g66
(dp3407
g93
g94
ssg75
g3397
sg68
(lp3408
S':'
asbag61
(g82
g63
NtRp3409
(dp3410
g66
(dp3411
sg75
g3397
sg68
(lp3412
g61
(g62
g63
NtRp3413
(dp3414
g66
(dp3415
g74
I5
ssg75
g3409
sg68
(lp3416
S'<cStringIO.StringO object at 0x4092e68>'
p3417
asbasbasbag61
(g77
g63
NtRp3418
(dp3419
g66
(dp3420
sg75
g3393
sg68
(lp3421
g61
(g82
g63
NtRp3422
(dp3423
g66
(dp3424
g86
g87
ssg75
g3418
sg68
(lp3425
g238
asbag61
(g82
g63
NtRp3426
(dp3427
g66
(dp3428
g93
g94
ssg75
g3418
sg68
(lp3429
S':'
asbag61
(g82
g63
NtRp3430
(dp3431
g66
(dp3432
sg75
g3418
sg68
(lp3433
g61
(g62
g63
NtRp3434
(dp3435
g66
(dp3436
g74
I5
ssg75
g3430
sg68
(lp3437
g61
(g70
g63
NtRp3438
(dp3439
g66
(dp3440
g74
I4
ssg75
Nsg68
(lp3441
g61
(g77
g63
NtRp3442
(dp3443
g66
(dp3444
sg75
g3438
sg68
(lp3445
g61
(g82
g63
NtRp3446
(dp3447
g66
(dp3448
g86
g87
ssg75
g3442
sg68
(lp3449
S'session_id_woppi'
p3450
asbag61
(g82
g63
NtRp3451
(dp3452
g66
(dp3453
g93
g94
ssg75
g3442
sg68
(lp3454
S':'
asbag61
(g82
g63
NtRp3455
(dp3456
g66
(dp3457
sg75
g3442
sg68
(lp3458
g61
(g62
g63
NtRp3459
(dp3460
g66
(dp3461
g74
I4
ssg75
g3455
sg68
(lp3462
g61
(g70
g63
NtRp3463
(dp3464
g66
(dp3465
g74
I3
ssg75
Nsg68
(lp3466
g61
(g77
g63
NtRp3467
(dp3468
g66
(dp3469
sg75
g3463
sg68
(lp3470
g61
(g82
g63
NtRp3471
(dp3472
g66
(dp3473
g86
g87
ssg75
g3467
sg68
(lp3474
g288
asbag61
(g82
g63
NtRp3475
(dp3476
g66
(dp3477
g93
g94
ssg75
g3467
sg68
(lp3478
S':'
asbag61
(g82
g63
NtRp3479
(dp3480
g66
(dp3481
sg75
g3467
sg68
(lp3482
g61
(g62
g63
NtRp3483
(dp3484
g66
(dp3485
g74
I3
ssg75
g3479
sg68
(lp3486
S''
asbasbasbag61
(g77
g63
NtRp3487
(dp3488
g66
(dp3489
sg75
g3463
sg68
(lp3490
g61
(g82
g63
NtRp3491
(dp3492
g66
(dp3493
g86
g87
ssg75
g3487
sg68
(lp3494
g309
asbag61
(g82
g63
NtRp3495
(dp3496
g66
(dp3497
g93
g94
ssg75
g3487
sg68
(lp3498
S':'
asbag61
(g82
g63
NtRp3499
(dp3500
g66
(dp3501
sg75
g3487
sg68
(lp3502
g61
(g62
g63
NtRp3503
(dp3504
g66
(dp3505
g74
I3
ssg75
g3499
sg68
(lp3506
S''
asbasbasbag61
(g77
g63
NtRp3507
(dp3508
g66
(dp3509
sg75
g3463
sg68
(lp3510
g61
(g82
g63
NtRp3511
(dp3512
g66
(dp3513
g86
g87
ssg75
g3507
sg68
(lp3514
g330
asbag61
(g82
g63
NtRp3515
(dp3516
g66
(dp3517
g93
g94
ssg75
g3507
sg68
(lp3518
S':'
asbag61
(g82
g63
NtRp3519
(dp3520
g66
(dp3521
sg75
g3507
sg68
(lp3522
g61
(g62
g63
NtRp3523
(dp3524
g66
(dp3525
g74
I3
ssg75
g3519
sg68
(lp3526
S''
asbasbasbag61
(g77
g63
NtRp3527
(dp3528
g66
(dp3529
sg75
g3463
sg68
(lp3530
g61
(g82
g63
NtRp3531
(dp3532
g66
(dp3533
g86
g87
ssg75
g3527
sg68
(lp3534
g351
asbag61
(g82
g63
NtRp3535
(dp3536
g66
(dp3537
g93
g94
ssg75
g3527
sg68
(lp3538
S':'
asbag61
(g82
g63
NtRp3539
(dp3540
g66
(dp3541
sg75
g3527
sg68
(lp3542
g61
(g62
g63
NtRp3543
(dp3544
g66
(dp3545
g74
I3
ssg75
g3539
sg68
(lp3546
S''
asbasbasbag61
(g77
g63
NtRp3547
(dp3548
g66
(dp3549
sg75
g3463
sg68
(lp3550
g61
(g82
g63
NtRp3551
(dp3552
g66
(dp3553
g86
g87
ssg75
g3547
sg68
(lp3554
g372
asbag61
(g82
g63
NtRp3555
(dp3556
g66
(dp3557
g93
g94
ssg75
g3547
sg68
(lp3558
S':'
asbag61
(g82
g63
NtRp3559
(dp3560
g66
(dp3561
sg75
g3547
sg68
(lp3562
g61
(g62
g63
NtRp3563
(dp3564
g66
(dp3565
g74
I3
ssg75
g3559
sg68
(lp3566
S''
asbasbasbag61
(g77
g63
NtRp3567
(dp3568
g66
(dp3569
sg75
g3463
sg68
(lp3570
g61
(g82
g63
NtRp3571
(dp3572
g66
(dp3573
g86
g87
ssg75
g3567
sg68
(lp3574
g393
asbag61
(g82
g63
NtRp3575
(dp3576
g66
(dp3577
g93
g94
ssg75
g3567
sg68
(lp3578
S':'
asbag61
(g82
g63
NtRp3579
(dp3580
g66
(dp3581
sg75
g3567
sg68
(lp3582
g61
(g62
g63
NtRp3583
(dp3584
g66
(dp3585
g74
I3
ssg75
g3579
sg68
(lp3586
S'/'
asbasbasbag61
(g77
g63
NtRp3587
(dp3588
g66
(dp3589
sg75
g3463
sg68
(lp3590
g61
(g82
g63
NtRp3591
(dp3592
g66
(dp3593
g86
g87
ssg75
g3587
sg68
(lp3594
g414
asbag61
(g82
g63
NtRp3595
(dp3596
g66
(dp3597
g93
g94
ssg75
g3587
sg68
(lp3598
S':'
asbag61
(g82
g63
NtRp3599
(dp3600
g66
(dp3601
sg75
g3587
sg68
(lp3602
g61
(g62
g63
NtRp3603
(dp3604
g66
(dp3605
g74
I3
ssg75
g3599
sg68
(lp3606
S''
asbasbasbag61
(g77
g63
NtRp3607
(dp3608
g66
(dp3609
sg75
g3463
sg68
(lp3610
g61
(g82
g63
NtRp3611
(dp3612
g66
(dp3613
g86
g87
ssg75
g3607
sg68
(lp3614
g435
asbag61
(g82
g63
NtRp3615
(dp3616
g66
(dp3617
g93
g94
ssg75
g3607
sg68
(lp3618
S':'
asbag61
(g82
g63
NtRp3619
(dp3620
g66
(dp3621
sg75
g3607
sg68
(lp3622
g61
(g62
g63
NtRp3623
(dp3624
g66
(dp3625
g74
I3
ssg75
g3619
sg68
(lp3626
S''
asbasbasbasbasbasbasbasbasbasbasbag61
(g77
g63
NtRp3627
(dp3628
g66
(dp3629
sg75
g3393
sg68
(lp3630
g61
(g82
g63
NtRp3631
(dp3632
g66
(dp3633
g86
g87
ssg75
g3627
sg68
(lp3634
S'delimiters'
p3635
asbag61
(g82
g63
NtRp3636
(dp3637
g66
(dp3638
g93
g94
ssg75
g3627
sg68
(lp3639
S':'
asbag61
(g82
g63
NtRp3640
(dp3641
g66
(dp3642
sg75
g3627
sg68
(lp3643
g61
(g62
g63
NtRp3644
(dp3645
g66
(dp3646
g74
I5
ssg75
g3640
sg68
(lp3647
g61
(g70
g63
NtRp3648
(dp3649
g66
(dp3650
g74
I4
ssg75
Nsg68
(lp3651
g61
(g77
g63
NtRp3652
(dp3653
g66
(dp3654
sg75
g3648
sg68
(lp3655
g61
(g82
g63
NtRp3656
(dp3657
g66
(dp3658
sg75
g3652
sg68
(lp3659
g61
(g62
g63
NtRp3660
(dp3661
g66
(dp3662
g74
I4
ssg75
g3656
sg68
(lp3663
S'{{'
p3664
asbasbasbag61
(g77
g63
NtRp3665
(dp3666
g66
(dp3667
sg75
g3648
sg68
(lp3668
g61
(g82
g63
NtRp3669
(dp3670
g66
(dp3671
sg75
g3665
sg68
(lp3672
g61
(g62
g63
NtRp3673
(dp3674
g66
(dp3675
g74
I4
ssg75
g3669
sg68
(lp3676
S'}}'
p3677
asbasbasbasbasbasbasbag61
(g77
g63
NtRp3678
(dp3679
g66
(dp3680
sg75
g3393
sg68
(lp3681
g61
(g82
g63
NtRp3682
(dp3683
g66
(dp3684
g86
g87
ssg75
g3678
sg68
(lp3685
S'files'
p3686
asbag61
(g82
g63
NtRp3687
(dp3688
g66
(dp3689
g93
g94
ssg75
g3678
sg68
(lp3690
S':'
asbag61
(g82
g63
NtRp3691
(dp3692
g66
(dp3693
sg75
g3678
sg68
(lp3694
g61
(g62
g63
NtRp3695
(dp3696
g66
(dp3697
g74
I5
ssg75
g3691
sg68
(lp3698
g61
(g70
g63
NtRp3699
(dp3700
g66
(dp3701
g74
I4
ssg75
Nsg68
(lp3702
sbasbasbasbag61
(g77
g63
NtRp3703
(dp3704
g66
(dp3705
sg75
g3393
sg68
(lp3706
g61
(g82
g63
NtRp3707
(dp3708
g66
(dp3709
g86
g87
ssg75
g3703
sg68
(lp3710
S'flash'
p3711
asbag61
(g82
g63
NtRp3712
(dp3713
g66
(dp3714
g93
g94
ssg75
g3703
sg68
(lp3715
S':'
asbag61
(g82
g63
NtRp3716
(dp3717
g66
(dp3718
sg75
g3703
sg68
(lp3719
g61
(g62
g63
NtRp3720
(dp3721
g66
(dp3722
g74
I5
ssg75
g3716
sg68
(lp3723
S''
asbasbasbag61
(g77
g63
NtRp3724
(dp3725
g66
(dp3726
sg75
g3393
sg68
(lp3727
g61
(g82
g63
NtRp3728
(dp3729
g66
(dp3730
g86
g87
ssg75
g3724
sg68
(lp3731
S'generic_patterns'
p3732
asbag61
(g82
g63
NtRp3733
(dp3734
g66
(dp3735
g93
g94
ssg75
g3724
sg68
(lp3736
S':'
asbag61
(g82
g63
NtRp3737
(dp3738
g66
(dp3739
sg75
g3724
sg68
(lp3740
g61
(g62
g63
NtRp3741
(dp3742
g66
(dp3743
g74
I5
ssg75
g3737
sg68
(lp3744
g61
(g70
g63
NtRp3745
(dp3746
g66
(dp3747
g74
I4
ssg75
Nsg68
(lp3748
g61
(g77
g63
NtRp3749
(dp3750
g66
(dp3751
sg75
g3745
sg68
(lp3752
g61
(g82
g63
NtRp3753
(dp3754
g66
(dp3755
sg75
g3749
sg68
(lp3756
g61
(g62
g63
NtRp3757
(dp3758
g66
(dp3759
g74
I4
ssg75
g3753
sg68
(lp3760
S'*'
asbasbasbasbasbasbasbag61
(g77
g63
NtRp3761
(dp3762
g66
(dp3763
sg75
g3393
sg68
(lp3764
g61
(g82
g63
NtRp3765
(dp3766
g66
(dp3767
g86
g87
ssg75
g3761
sg68
(lp3768
S'headers'
p3769
asbag61
(g82
g63
NtRp3770
(dp3771
g66
(dp3772
g93
g94
ssg75
g3761
sg68
(lp3773
S':'
asbag61
(g82
g63
NtRp3774
(dp3775
g66
(dp3776
sg75
g3761
sg68
(lp3777
g61
(g62
g63
NtRp3778
(dp3779
g66
(dp3780
g74
I5
ssg75
g3774
sg68
(lp3781
g61
(g70
g63
NtRp3782
(dp3783
g66
(dp3784
g74
I4
ssg75
Nsg68
(lp3785
g61
(g77
g63
NtRp3786
(dp3787
g66
(dp3788
sg75
g3782
sg68
(lp3789
g61
(g82
g63
NtRp3790
(dp3791
g66
(dp3792
g86
g87
ssg75
g3786
sg68
(lp3793
S'Cache-Control'
p3794
asbag61
(g82
g63
NtRp3795
(dp3796
g66
(dp3797
g93
g94
ssg75
g3786
sg68
(lp3798
S':'
asbag61
(g82
g63
NtRp3799
(dp3800
g66
(dp3801
sg75
g3786
sg68
(lp3802
g61
(g62
g63
NtRp3803
(dp3804
g66
(dp3805
g74
I4
ssg75
g3799
sg68
(lp3806
S'no-store, no-cache, must-revalidate, post-check=0, pre-check=0'
p3807
asbasbasbag61
(g77
g63
NtRp3808
(dp3809
g66
(dp3810
sg75
g3782
sg68
(lp3811
g61
(g82
g63
NtRp3812
(dp3813
g66
(dp3814
g86
g87
ssg75
g3808
sg68
(lp3815
S'Content-Type'
p3816
asbag61
(g82
g63
NtRp3817
(dp3818
g66
(dp3819
g93
g94
ssg75
g3808
sg68
(lp3820
S':'
asbag61
(g82
g63
NtRp3821
(dp3822
g66
(dp3823
sg75
g3808
sg68
(lp3824
g61
(g62
g63
NtRp3825
(dp3826
g66
(dp3827
g74
I4
ssg75
g3821
sg68
(lp3828
S'text/html; charset=utf-8'
p3829
asbasbasbag61
(g77
g63
NtRp3830
(dp3831
g66
(dp3832
sg75
g3782
sg68
(lp3833
g61
(g82
g63
NtRp3834
(dp3835
g66
(dp3836
g86
g87
ssg75
g3830
sg68
(lp3837
S'Expires'
p3838
asbag61
(g82
g63
NtRp3839
(dp3840
g66
(dp3841
g93
g94
ssg75
g3830
sg68
(lp3842
S':'
asbag61
(g82
g63
NtRp3843
(dp3844
g66
(dp3845
sg75
g3830
sg68
(lp3846
g61
(g62
g63
NtRp3847
(dp3848
g66
(dp3849
g74
I4
ssg75
g3843
sg68
(lp3850
S'Wed, 18 Apr 2012 21:32:08 GMT'
p3851
asbasbasbag61
(g77
g63
NtRp3852
(dp3853
g66
(dp3854
sg75
g3782
sg68
(lp3855
g61
(g82
g63
NtRp3856
(dp3857
g66
(dp3858
g86
g87
ssg75
g3852
sg68
(lp3859
S'Pragma'
p3860
asbag61
(g82
g63
NtRp3861
(dp3862
g66
(dp3863
g93
g94
ssg75
g3852
sg68
(lp3864
S':'
asbag61
(g82
g63
NtRp3865
(dp3866
g66
(dp3867
sg75
g3852
sg68
(lp3868
g61
(g62
g63
NtRp3869
(dp3870
g66
(dp3871
g74
I4
ssg75
g3865
sg68
(lp3872
S'no-cache'
p3873
asbasbasbag61
(g77
g63
NtRp3874
(dp3875
g66
(dp3876
sg75
g3782
sg68
(lp3877
g61
(g82
g63
NtRp3878
(dp3879
g66
(dp3880
g86
g87
ssg75
g3874
sg68
(lp3881
S'X-Powered-By'
p3882
asbag61
(g82
g63
NtRp3883
(dp3884
g66
(dp3885
g93
g94
ssg75
g3874
sg68
(lp3886
S':'
asbag61
(g82
g63
NtRp3887
(dp3888
g66
(dp3889
sg75
g3874
sg68
(lp3890
g61
(g62
g63
NtRp3891
(dp3892
g66
(dp3893
g74
I4
ssg75
g3887
sg68
(lp3894
S'web2py'
p3895
asbasbasbasbasbasbasbag61
(g77
g63
NtRp3896
(dp3897
g66
(dp3898
sg75
g3393
sg68
(lp3899
g61
(g82
g63
NtRp3900
(dp3901
g66
(dp3902
g86
g87
ssg75
g3896
sg68
(lp3903
S'menu'
p3904
asbag61
(g82
g63
NtRp3905
(dp3906
g66
(dp3907
g93
g94
ssg75
g3896
sg68
(lp3908
S':'
asbag61
(g82
g63
NtRp3909
(dp3910
g66
(dp3911
sg75
g3896
sg68
(lp3912
g61
(g62
g63
NtRp3913
(dp3914
g66
(dp3915
g74
I5
ssg75
g3909
sg68
(lp3916
g61
(g70
g63
NtRp3917
(dp3918
g66
(dp3919
g74
I4
ssg75
Nsg68
(lp3920
sbasbasbasbag61
(g77
g63
NtRp3921
(dp3922
g66
(dp3923
sg75
g3393
sg68
(lp3924
g61
(g82
g63
NtRp3925
(dp3926
g66
(dp3927
g86
g87
ssg75
g3921
sg68
(lp3928
S'meta'
p3929
asbag61
(g82
g63
NtRp3930
(dp3931
g66
(dp3932
g93
g94
ssg75
g3921
sg68
(lp3933
S':'
asbag61
(g82
g63
NtRp3934
(dp3935
g66
(dp3936
sg75
g3921
sg68
(lp3937
g61
(g62
g63
NtRp3938
(dp3939
g66
(dp3940
g74
I5
ssg75
g3934
sg68
(lp3941
g61
(g70
g63
NtRp3942
(dp3943
g66
(dp3944
g74
I4
ssg75
Nsg68
(lp3945
sbasbasbasbag61
(g77
g63
NtRp3946
(dp3947
g66
(dp3948
sg75
g3393
sg68
(lp3949
g61
(g82
g63
NtRp3950
(dp3951
g66
(dp3952
g86
g87
ssg75
g3946
sg68
(lp3953
S'postprocessing'
p3954
asbag61
(g82
g63
NtRp3955
(dp3956
g66
(dp3957
g93
g94
ssg75
g3946
sg68
(lp3958
S':'
asbag61
(g82
g63
NtRp3959
(dp3960
g66
(dp3961
sg75
g3946
sg68
(lp3962
g61
(g62
g63
NtRp3963
(dp3964
g66
(dp3965
g74
I5
ssg75
g3959
sg68
(lp3966
g61
(g70
g63
NtRp3967
(dp3968
g66
(dp3969
g74
I4
ssg75
Nsg68
(lp3970
sbasbasbasbag61
(g77
g63
NtRp3971
(dp3972
g66
(dp3973
sg75
g3393
sg68
(lp3974
g61
(g82
g63
NtRp3975
(dp3976
g66
(dp3977
g86
g87
ssg75
g3971
sg68
(lp3978
S'session_file'
p3979
asbag61
(g82
g63
NtRp3980
(dp3981
g66
(dp3982
g93
g94
ssg75
g3971
sg68
(lp3983
S':'
asbag61
(g82
g63
NtRp3984
(dp3985
g66
(dp3986
sg75
g3971
sg68
(lp3987
g61
(g62
g63
NtRp3988
(dp3989
g66
(dp3990
g74
I5
ssg75
g3984
sg68
(lp3991
S"<open file '/home/marco/projects/final/web2py/applications/woppi/sessions/127.0.0.1-2fcd2ca5-ac5c-4fa4-9dad-3f95823e803d', mode 'rb+' at 0x34ddf60>"
p3992
asbasbasbag61
(g77
g63
NtRp3993
(dp3994
g66
(dp3995
sg75
g3393
sg68
(lp3996
g61
(g82
g63
NtRp3997
(dp3998
g66
(dp3999
g86
g87
ssg75
g3993
sg68
(lp4000
S'session_filename'
p4001
asbag61
(g82
g63
NtRp4002
(dp4003
g66
(dp4004
g93
g94
ssg75
g3993
sg68
(lp4005
S':'
asbag61
(g82
g63
NtRp4006
(dp4007
g66
(dp4008
sg75
g3993
sg68
(lp4009
g61
(g62
g63
NtRp4010
(dp4011
g66
(dp4012
g74
I5
ssg75
g4006
sg68
(lp4013
S'/home/marco/projects/final/web2py/applications/woppi/sessions/127.0.0.1-2fcd2ca5-ac5c-4fa4-9dad-3f95823e803d'
p4014
asbasbasbag61
(g77
g63
NtRp4015
(dp4016
g66
(dp4017
sg75
g3393
sg68
(lp4018
g61
(g82
g63
NtRp4019
(dp4020
g66
(dp4021
g86
g87
ssg75
g4015
sg68
(lp4022
S'session_id'
p4023
asbag61
(g82
g63
NtRp4024
(dp4025
g66
(dp4026
g93
g94
ssg75
g4015
sg68
(lp4027
S':'
asbag61
(g82
g63
NtRp4028
(dp4029
g66
(dp4030
sg75
g4015
sg68
(lp4031
g61
(g62
g63
NtRp4032
(dp4033
g66
(dp4034
g74
I5
ssg75
g4028
sg68
(lp4035
S'127.0.0.1-2fcd2ca5-ac5c-4fa4-9dad-3f95823e803d'
p4036
asbasbasbag61
(g77
g63
NtRp4037
(dp4038
g66
(dp4039
sg75
g3393
sg68
(lp4040
g61
(g82
g63
NtRp4041
(dp4042
g66
(dp4043
g86
g87
ssg75
g4037
sg68
(lp4044
S'session_id_name'
p4045
asbag61
(g82
g63
NtRp4046
(dp4047
g66
(dp4048
g93
g94
ssg75
g4037
sg68
(lp4049
S':'
asbag61
(g82
g63
NtRp4050
(dp4051
g66
(dp4052
sg75
g4037
sg68
(lp4053
g61
(g62
g63
NtRp4054
(dp4055
g66
(dp4056
g74
I5
ssg75
g4050
sg68
(lp4057
g3450
asbasbasbag61
(g77
g63
NtRp4058
(dp4059
g66
(dp4060
sg75
g3393
sg68
(lp4061
g61
(g82
g63
NtRp4062
(dp4063
g66
(dp4064
g86
g87
ssg75
g4058
sg68
(lp4065
S'session_locked'
p4066
asbag61
(g82
g63
NtRp4067
(dp4068
g66
(dp4069
g93
g94
ssg75
g4058
sg68
(lp4070
S':'
asbag61
(g82
g63
NtRp4071
(dp4072
g66
(dp4073
sg75
g4058
sg68
(lp4074
g61
(g62
g63
NtRp4075
(dp4076
g66
(dp4077
g74
I5
ssg75
g4071
sg68
(lp4078
g1881
asbasbasbag61
(g77
g63
NtRp4079
(dp4080
g66
(dp4081
sg75
g3393
sg68
(lp4082
g61
(g82
g63
NtRp4083
(dp4084
g66
(dp4085
g86
g87
ssg75
g4079
sg68
(lp4086
S'session_new'
p4087
asbag61
(g82
g63
NtRp4088
(dp4089
g66
(dp4090
g93
g94
ssg75
g4079
sg68
(lp4091
S':'
asbag61
(g82
g63
NtRp4092
(dp4093
g66
(dp4094
sg75
g4079
sg68
(lp4095
g61
(g62
g63
NtRp4096
(dp4097
g66
(dp4098
g74
I5
ssg75
g4092
sg68
(lp4099
g104
asbasbasbag61
(g77
g63
NtRp4100
(dp4101
g66
(dp4102
sg75
g3393
sg68
(lp4103
g61
(g82
g63
NtRp4104
(dp4105
g66
(dp4106
g86
g87
ssg75
g4100
sg68
(lp4107
S'status'
p4108
asbag61
(g82
g63
NtRp4109
(dp4110
g66
(dp4111
g93
g94
ssg75
g4100
sg68
(lp4112
S':'
asbag61
(g82
g63
NtRp4113
(dp4114
g66
(dp4115
sg75
g4100
sg68
(lp4116
g61
(g62
g63
NtRp4117
(dp4118
g66
(dp4119
g74
I5
ssg75
g4113
sg68
(lp4120
S'200'
p4121
asbasbasbag61
(g77
g63
NtRp4122
(dp4123
g66
(dp4124
sg75
g3393
sg68
(lp4125
g61
(g82
g63
NtRp4126
(dp4127
g66
(dp4128
g86
g87
ssg75
g4122
sg68
(lp4129
g2566
asbag61
(g82
g63
NtRp4130
(dp4131
g66
(dp4132
g93
g94
ssg75
g4122
sg68
(lp4133
S':'
asbag61
(g82
g63
NtRp4134
(dp4135
g66
(dp4136
sg75
g4122
sg68
(lp4137
g61
(g62
g63
NtRp4138
(dp4139
g66
(dp4140
g74
I5
ssg75
g4134
sg68
(lp4141
g2579
asbasbasbag61
(g77
g63
NtRp4142
(dp4143
g66
(dp4144
sg75
g3393
sg68
(lp4145
g61
(g82
g63
NtRp4146
(dp4147
g66
(dp4148
g86
g87
ssg75
g4142
sg68
(lp4149
S'view'
p4150
asbag61
(g82
g63
NtRp4151
(dp4152
g66
(dp4153
g93
g94
ssg75
g4142
sg68
(lp4154
S':'
asbag61
(g82
g63
NtRp4155
(dp4156
g66
(dp4157
sg75
g4142
sg68
(lp4158
g61
(g62
g63
NtRp4159
(dp4160
g66
(dp4161
g74
I5
ssg75
g4155
sg68
(lp4162
S'default/user.html'
p4163
asbasbasbasbasbsS'locals'
p4164
(dp4165
S'a'
S"('ALTER TABLE auth_user ADD username CHAR(512) UNIQUE;',)"
p4166
sS'self'
p4167
S'<gluon.dal.SQLiteAdapter object>'
p4168
sS'b'
g21
sS't0'
p4169
S'1334784728.822482'
p4170
sssS'traceback'
p4171
S'Traceback (most recent call last):\n  File "/home/marco/projects/final/web2py/gluon/restricted.py", line 205, in restricted\n    exec ccode in environment\n  File "/home/marco/projects/final/web2py/applications/woppi/models/db.py", line 50, in <module>\n    Field(\'registration_id\', length=512, writable=False, readable=False, default=\'\'))\n  File "/home/marco/projects/final/web2py/gluon/dal.py", line 6320, in define_table\n    polymodel=polymodel)\n  File "/home/marco/projects/final/web2py/gluon/dal.py", line 742, in create_table\n    fake_migrate=fake_migrate)\n  File "/home/marco/projects/final/web2py/gluon/dal.py", line 830, in migrate_table\n    self.execute(sub_query)\n  File "/home/marco/projects/final/web2py/gluon/dal.py", line 1392, in execute\n    return self.log_execute(*a, **b)\n  File "/home/marco/projects/final/web2py/gluon/dal.py", line 1386, in log_execute\n    ret = self.cursor.execute(*a, **b)\nOperationalError: Cannot add a UNIQUE column\n'
p4172
s.