(dp1
S'output'
p2
S"<type 'exceptions.SyntaxError'> keyword argument repeated (db_interno.py, line 34)"
p3
sS'layer'
p4
S'/home/marco/projects/final/web2py/applications/woppi/models/db_interno.py'
p5
sS'code'
p6
S"# -*- coding: utf-8 -*-\n\ndb.define_table('especialidad',\n    Field('nombre'),\n    format ='%(id)s - %(nombre)s'\n    )\n\ndb.define_table('medico',\n    Field('titulo',requires=IS_IN_SET(['Dr.','Dra.','Lic.'])),\n    Field('nombre'),\n    Field('apellido'),\n    Field('dni','integer'),\n    Field('matricula','integer'),\n    Field('especialidad',db.especialidad),\n    Field('domicilio'),\n    Field('telefono','integer'),\n    Field('celular','integer'),\n    Field('comentarios','text'),\n    Field('fealta','datetime',label='Fecha Alta',default=request.now,writable=False),\n    format = '%(titulo)s %(apellido)s %(nombre)s'\n    )\n\ndb.define_table('personal',\n    Field('nombre'),\n    Field('apellido'),\n    Field('dni','integer'),\n    Field('cargo'),\n    Field('fnac','date',label='Fecha de nacimiento'),\n    Field('sexo'),\n    Field('domicilio'),\n    Field('telefono','integer'),\n    Field('celular','integer'),\n    Field('comentarios','text'),\n    Field('fealta','datetime',default=request.now,writable=False,default='Fecha de alta'),\n    format = '%(id)s - %(apellido)s %(nombre)s'\n    )\n"
p7
sS'snapshot'
p8
(dp9
S'exception'
p10
(dp11
S'__getslice__'
p12
S"<method-wrapper '__getslice__' of exceptions.SyntaxError object>"
p13
sS'text'
p14
S'"Field(\'fealta\',\'datetime\',default=request.now,writable=False,default=\'Fecha de alta\'),\\n"'
p15
sS'__str__'
p16
S"<method-wrapper '__str__' of exceptions.SyntaxError object>"
p17
sS'__reduce__'
p18
S'<built-in method __reduce__ of exceptions.SyntaxError object>'
p19
sS'__dict__'
p20
S'{}'
p21
sS'__sizeof__'
p22
S'<built-in method __sizeof__ of exceptions.SyntaxError object>'
p23
sS'__init__'
p24
S"<method-wrapper '__init__' of exceptions.SyntaxError object>"
p25
sS'__setattr__'
p26
S"<method-wrapper '__setattr__' of exceptions.SyntaxError object>"
p27
sS'__reduce_ex__'
p28
S'<built-in method __reduce_ex__ of exceptions.SyntaxError object>'
p29
sS'__new__'
p30
S'<built-in method __new__ of type object>'
p31
sS'__format__'
p32
S'<built-in method __format__ of exceptions.SyntaxError object>'
p33
sS'__class__'
p34
S"<type 'exceptions.SyntaxError'>"
p35
sS'filename'
p36
S"'/home/marco/projects/final/web2py/applications/woppi/models/db_interno.py'"
p37
sS'lineno'
p38
S'34'
p39
sS'msg'
p40
S"'keyword argument repeated'"
p41
sS'__doc__'
p42
S"'Invalid syntax.'"
p43
sS'__getitem__'
p44
S"<method-wrapper '__getitem__' of exceptions.SyntaxError object>"
p45
sS'__setstate__'
p46
S'<built-in method __setstate__ of exceptions.SyntaxError object>'
p47
sS'__getattribute__'
p48
S"<method-wrapper '__getattribute__' of exceptions.SyntaxError object>"
p49
sS'print_file_and_line'
p50
S'None'
p51
sS'args'
p52
S'(\'keyword argument repeated\', (\'/home/marco/projects/final/web2py/applications/woppi/models/db_interno.py\', 34, None, "Field(\'fealta\',\'datetime\',default=request.now,writable=False,default=\'Fecha de alta\'),\\n"))'
p53
sS'__subclasshook__'
p54
S'<built-in method __subclasshook__ of type object>'
p55
sS'offset'
p56
S'None'
p57
sS'__unicode__'
p58
S'<built-in method __unicode__ of exceptions.SyntaxError object>'
p59
sS'__delattr__'
p60
S"<method-wrapper '__delattr__' of exceptions.SyntaxError object>"
p61
sS'__repr__'
p62
S"<method-wrapper '__repr__' of exceptions.SyntaxError object>"
p63
sS'__hash__'
p64
S"<method-wrapper '__hash__' of exceptions.SyntaxError object>"
p65
ssS'evalue'
p66
S'keyword argument repeated (db_interno.py, line 34)'
p67
sS'request'
p68
ccopy_reg
_reconstructor
p69
(cgluon.html
BEAUTIFY
p70
c__builtin__
object
p71
NtRp72
(dp73
S'attributes'
p74
(dp75
sS'components'
p76
(lp77
g69
(cgluon.html
TABLE
p78
g71
NtRp79
(dp80
g74
(dp81
S'level'
p82
I5
ssS'parent'
p83
Nsg76
(lp84
g69
(cgluon.html
TR
p85
g71
NtRp86
(dp87
g74
(dp88
sg83
g79
sg76
(lp89
g69
(cgluon.html
TD
p90
g71
NtRp91
(dp92
g74
(dp93
S'_style'
p94
S'font-weight:bold;vertical-align:top'
p95
ssg83
g86
sg76
(lp96
S'ajax'
p97
asbag69
(g90
g71
NtRp98
(dp99
g74
(dp100
S'_valign'
p101
S'top'
p102
ssg83
g86
sg76
(lp103
S':'
asbag69
(g90
g71
NtRp104
(dp105
g74
(dp106
sg83
g86
sg76
(lp107
g69
(g70
g71
NtRp108
(dp109
g74
(dp110
g82
I5
ssg83
g104
sg76
(lp111
S'False'
p112
asbasbasbag69
(g85
g71
NtRp113
(dp114
g74
(dp115
sg83
g79
sg76
(lp116
g69
(g90
g71
NtRp117
(dp118
g74
(dp119
g94
g95
ssg83
g113
sg76
(lp120
S'application'
p121
asbag69
(g90
g71
NtRp122
(dp123
g74
(dp124
g101
g102
ssg83
g113
sg76
(lp125
S':'
asbag69
(g90
g71
NtRp126
(dp127
g74
(dp128
sg83
g113
sg76
(lp129
g69
(g70
g71
NtRp130
(dp131
g74
(dp132
g82
I5
ssg83
g126
sg76
(lp133
S'woppi'
p134
asbasbasbag69
(g85
g71
NtRp135
(dp136
g74
(dp137
sg83
g79
sg76
(lp138
g69
(g90
g71
NtRp139
(dp140
g74
(dp141
g94
g95
ssg83
g135
sg76
(lp142
g52
asbag69
(g90
g71
NtRp143
(dp144
g74
(dp145
g101
g102
ssg83
g135
sg76
(lp146
S':'
asbag69
(g90
g71
NtRp147
(dp148
g74
(dp149
sg83
g135
sg76
(lp150
g69
(g70
g71
NtRp151
(dp152
g74
(dp153
g82
I5
ssg83
g147
sg76
(lp154
g69
(g78
g71
NtRp155
(dp156
g74
(dp157
g82
I4
ssg83
Nsg76
(lp158
g69
(g85
g71
NtRp159
(dp160
g74
(dp161
sg83
g155
sg76
(lp162
g69
(g90
g71
NtRp163
(dp164
g74
(dp165
sg83
g159
sg76
(lp166
g69
(g70
g71
NtRp167
(dp168
g74
(dp169
g82
I4
ssg83
g163
sg76
(lp170
S'new'
p171
asbasbasbag69
(g85
g71
NtRp172
(dp173
g74
(dp174
sg83
g155
sg76
(lp175
g69
(g90
g71
NtRp176
(dp177
g74
(dp178
sg83
g172
sg76
(lp179
g69
(g70
g71
NtRp180
(dp181
g74
(dp182
g82
I4
ssg83
g176
sg76
(lp183
S'personal'
p184
asbasbasbasbasbasbasbag69
(g85
g71
NtRp185
(dp186
g74
(dp187
sg83
g79
sg76
(lp188
g69
(g90
g71
NtRp189
(dp190
g74
(dp191
g94
g95
ssg83
g185
sg76
(lp192
S'body'
p193
asbag69
(g90
g71
NtRp194
(dp195
g74
(dp196
g101
g102
ssg83
g185
sg76
(lp197
S':'
asbag69
(g90
g71
NtRp198
(dp199
g74
(dp200
sg83
g185
sg76
(lp201
g69
(g70
g71
NtRp202
(dp203
g74
(dp204
g82
I5
ssg83
g198
sg76
(lp205
S'<cStringIO.StringO object at 0x23dd378>'
p206
asbasbasbag69
(g85
g71
NtRp207
(dp208
g74
(dp209
sg83
g79
sg76
(lp210
g69
(g90
g71
NtRp211
(dp212
g74
(dp213
g94
g95
ssg83
g207
sg76
(lp214
S'client'
p215
asbag69
(g90
g71
NtRp216
(dp217
g74
(dp218
g101
g102
ssg83
g207
sg76
(lp219
S':'
asbag69
(g90
g71
NtRp220
(dp221
g74
(dp222
sg83
g207
sg76
(lp223
g69
(g70
g71
NtRp224
(dp225
g74
(dp226
g82
I5
ssg83
g220
sg76
(lp227
S'127.0.0.1'
p228
asbasbasbag69
(g85
g71
NtRp229
(dp230
g74
(dp231
sg83
g79
sg76
(lp232
g69
(g90
g71
NtRp233
(dp234
g74
(dp235
g94
g95
ssg83
g229
sg76
(lp236
S'controller'
p237
asbag69
(g90
g71
NtRp238
(dp239
g74
(dp240
g101
g102
ssg83
g229
sg76
(lp241
S':'
asbag69
(g90
g71
NtRp242
(dp243
g74
(dp244
sg83
g229
sg76
(lp245
g69
(g70
g71
NtRp246
(dp247
g74
(dp248
g82
I5
ssg83
g242
sg76
(lp249
S'interno'
p250
asbasbasbag69
(g85
g71
NtRp251
(dp252
g74
(dp253
sg83
g79
sg76
(lp254
g69
(g90
g71
NtRp255
(dp256
g74
(dp257
g94
g95
ssg83
g251
sg76
(lp258
S'cookies'
p259
asbag69
(g90
g71
NtRp260
(dp261
g74
(dp262
g101
g102
ssg83
g251
sg76
(lp263
S':'
asbag69
(g90
g71
NtRp264
(dp265
g74
(dp266
sg83
g251
sg76
(lp267
g69
(g70
g71
NtRp268
(dp269
g74
(dp270
g82
I5
ssg83
g264
sg76
(lp271
g69
(g78
g71
NtRp272
(dp273
g74
(dp274
g82
I4
ssg83
Nsg76
(lp275
g69
(g85
g71
NtRp276
(dp277
g74
(dp278
sg83
g272
sg76
(lp279
g69
(g90
g71
NtRp280
(dp281
g74
(dp282
g94
g95
ssg83
g276
sg76
(lp283
S'session_id_admin'
p284
asbag69
(g90
g71
NtRp285
(dp286
g74
(dp287
g101
g102
ssg83
g276
sg76
(lp288
S':'
asbag69
(g90
g71
NtRp289
(dp290
g74
(dp291
sg83
g276
sg76
(lp292
g69
(g70
g71
NtRp293
(dp294
g74
(dp295
g82
I4
ssg83
g289
sg76
(lp296
g69
(g78
g71
NtRp297
(dp298
g74
(dp299
g82
I3
ssg83
Nsg76
(lp300
g69
(g85
g71
NtRp301
(dp302
g74
(dp303
sg83
g297
sg76
(lp304
g69
(g90
g71
NtRp305
(dp306
g74
(dp307
g94
g95
ssg83
g301
sg76
(lp308
S'comment'
p309
asbag69
(g90
g71
NtRp310
(dp311
g74
(dp312
g101
g102
ssg83
g301
sg76
(lp313
S':'
asbag69
(g90
g71
NtRp314
(dp315
g74
(dp316
sg83
g301
sg76
(lp317
g69
(g70
g71
NtRp318
(dp319
g74
(dp320
g82
I3
ssg83
g314
sg76
(lp321
S''
asbasbasbag69
(g85
g71
NtRp322
(dp323
g74
(dp324
sg83
g297
sg76
(lp325
g69
(g90
g71
NtRp326
(dp327
g74
(dp328
g94
g95
ssg83
g322
sg76
(lp329
S'domain'
p330
asbag69
(g90
g71
NtRp331
(dp332
g74
(dp333
g101
g102
ssg83
g322
sg76
(lp334
S':'
asbag69
(g90
g71
NtRp335
(dp336
g74
(dp337
sg83
g322
sg76
(lp338
g69
(g70
g71
NtRp339
(dp340
g74
(dp341
g82
I3
ssg83
g335
sg76
(lp342
S''
asbasbasbag69
(g85
g71
NtRp343
(dp344
g74
(dp345
sg83
g297
sg76
(lp346
g69
(g90
g71
NtRp347
(dp348
g74
(dp349
g94
g95
ssg83
g343
sg76
(lp350
S'expires'
p351
asbag69
(g90
g71
NtRp352
(dp353
g74
(dp354
g101
g102
ssg83
g343
sg76
(lp355
S':'
asbag69
(g90
g71
NtRp356
(dp357
g74
(dp358
sg83
g343
sg76
(lp359
g69
(g70
g71
NtRp360
(dp361
g74
(dp362
g82
I3
ssg83
g356
sg76
(lp363
S''
asbasbasbag69
(g85
g71
NtRp364
(dp365
g74
(dp366
sg83
g297
sg76
(lp367
g69
(g90
g71
NtRp368
(dp369
g74
(dp370
g94
g95
ssg83
g364
sg76
(lp371
S'httponly'
p372
asbag69
(g90
g71
NtRp373
(dp374
g74
(dp375
g101
g102
ssg83
g364
sg76
(lp376
S':'
asbag69
(g90
g71
NtRp377
(dp378
g74
(dp379
sg83
g364
sg76
(lp380
g69
(g70
g71
NtRp381
(dp382
g74
(dp383
g82
I3
ssg83
g377
sg76
(lp384
S''
asbasbasbag69
(g85
g71
NtRp385
(dp386
g74
(dp387
sg83
g297
sg76
(lp388
g69
(g90
g71
NtRp389
(dp390
g74
(dp391
g94
g95
ssg83
g385
sg76
(lp392
S'max-age'
p393
asbag69
(g90
g71
NtRp394
(dp395
g74
(dp396
g101
g102
ssg83
g385
sg76
(lp397
S':'
asbag69
(g90
g71
NtRp398
(dp399
g74
(dp400
sg83
g385
sg76
(lp401
g69
(g70
g71
NtRp402
(dp403
g74
(dp404
g82
I3
ssg83
g398
sg76
(lp405
S''
asbasbasbag69
(g85
g71
NtRp406
(dp407
g74
(dp408
sg83
g297
sg76
(lp409
g69
(g90
g71
NtRp410
(dp411
g74
(dp412
g94
g95
ssg83
g406
sg76
(lp413
S'path'
p414
asbag69
(g90
g71
NtRp415
(dp416
g74
(dp417
g101
g102
ssg83
g406
sg76
(lp418
S':'
asbag69
(g90
g71
NtRp419
(dp420
g74
(dp421
sg83
g406
sg76
(lp422
g69
(g70
g71
NtRp423
(dp424
g74
(dp425
g82
I3
ssg83
g419
sg76
(lp426
S''
asbasbasbag69
(g85
g71
NtRp427
(dp428
g74
(dp429
sg83
g297
sg76
(lp430
g69
(g90
g71
NtRp431
(dp432
g74
(dp433
g94
g95
ssg83
g427
sg76
(lp434
S'secure'
p435
asbag69
(g90
g71
NtRp436
(dp437
g74
(dp438
g101
g102
ssg83
g427
sg76
(lp439
S':'
asbag69
(g90
g71
NtRp440
(dp441
g74
(dp442
sg83
g427
sg76
(lp443
g69
(g70
g71
NtRp444
(dp445
g74
(dp446
g82
I3
ssg83
g440
sg76
(lp447
S''
asbasbasbag69
(g85
g71
NtRp448
(dp449
g74
(dp450
sg83
g297
sg76
(lp451
g69
(g90
g71
NtRp452
(dp453
g74
(dp454
g94
g95
ssg83
g448
sg76
(lp455
S'version'
p456
asbag69
(g90
g71
NtRp457
(dp458
g74
(dp459
g101
g102
ssg83
g448
sg76
(lp460
S':'
asbag69
(g90
g71
NtRp461
(dp462
g74
(dp463
sg83
g448
sg76
(lp464
g69
(g70
g71
NtRp465
(dp466
g74
(dp467
g82
I3
ssg83
g461
sg76
(lp468
S''
asbasbasbasbasbasbasbag69
(g85
g71
NtRp469
(dp470
g74
(dp471
sg83
g272
sg76
(lp472
g69
(g90
g71
NtRp473
(dp474
g74
(dp475
g94
g95
ssg83
g469
sg76
(lp476
S'session_id_slidetest'
p477
asbag69
(g90
g71
NtRp478
(dp479
g74
(dp480
g101
g102
ssg83
g469
sg76
(lp481
S':'
asbag69
(g90
g71
NtRp482
(dp483
g74
(dp484
sg83
g469
sg76
(lp485
g69
(g70
g71
NtRp486
(dp487
g74
(dp488
g82
I4
ssg83
g482
sg76
(lp489
g69
(g78
g71
NtRp490
(dp491
g74
(dp492
g82
I3
ssg83
Nsg76
(lp493
g69
(g85
g71
NtRp494
(dp495
g74
(dp496
sg83
g490
sg76
(lp497
g69
(g90
g71
NtRp498
(dp499
g74
(dp500
g94
g95
ssg83
g494
sg76
(lp501
g309
asbag69
(g90
g71
NtRp502
(dp503
g74
(dp504
g101
g102
ssg83
g494
sg76
(lp505
S':'
asbag69
(g90
g71
NtRp506
(dp507
g74
(dp508
sg83
g494
sg76
(lp509
g69
(g70
g71
NtRp510
(dp511
g74
(dp512
g82
I3
ssg83
g506
sg76
(lp513
S''
asbasbasbag69
(g85
g71
NtRp514
(dp515
g74
(dp516
sg83
g490
sg76
(lp517
g69
(g90
g71
NtRp518
(dp519
g74
(dp520
g94
g95
ssg83
g514
sg76
(lp521
g330
asbag69
(g90
g71
NtRp522
(dp523
g74
(dp524
g101
g102
ssg83
g514
sg76
(lp525
S':'
asbag69
(g90
g71
NtRp526
(dp527
g74
(dp528
sg83
g514
sg76
(lp529
g69
(g70
g71
NtRp530
(dp531
g74
(dp532
g82
I3
ssg83
g526
sg76
(lp533
S''
asbasbasbag69
(g85
g71
NtRp534
(dp535
g74
(dp536
sg83
g490
sg76
(lp537
g69
(g90
g71
NtRp538
(dp539
g74
(dp540
g94
g95
ssg83
g534
sg76
(lp541
g351
asbag69
(g90
g71
NtRp542
(dp543
g74
(dp544
g101
g102
ssg83
g534
sg76
(lp545
S':'
asbag69
(g90
g71
NtRp546
(dp547
g74
(dp548
sg83
g534
sg76
(lp549
g69
(g70
g71
NtRp550
(dp551
g74
(dp552
g82
I3
ssg83
g546
sg76
(lp553
S''
asbasbasbag69
(g85
g71
NtRp554
(dp555
g74
(dp556
sg83
g490
sg76
(lp557
g69
(g90
g71
NtRp558
(dp559
g74
(dp560
g94
g95
ssg83
g554
sg76
(lp561
g372
asbag69
(g90
g71
NtRp562
(dp563
g74
(dp564
g101
g102
ssg83
g554
sg76
(lp565
S':'
asbag69
(g90
g71
NtRp566
(dp567
g74
(dp568
sg83
g554
sg76
(lp569
g69
(g70
g71
NtRp570
(dp571
g74
(dp572
g82
I3
ssg83
g566
sg76
(lp573
S''
asbasbasbag69
(g85
g71
NtRp574
(dp575
g74
(dp576
sg83
g490
sg76
(lp577
g69
(g90
g71
NtRp578
(dp579
g74
(dp580
g94
g95
ssg83
g574
sg76
(lp581
g393
asbag69
(g90
g71
NtRp582
(dp583
g74
(dp584
g101
g102
ssg83
g574
sg76
(lp585
S':'
asbag69
(g90
g71
NtRp586
(dp587
g74
(dp588
sg83
g574
sg76
(lp589
g69
(g70
g71
NtRp590
(dp591
g74
(dp592
g82
I3
ssg83
g586
sg76
(lp593
S''
asbasbasbag69
(g85
g71
NtRp594
(dp595
g74
(dp596
sg83
g490
sg76
(lp597
g69
(g90
g71
NtRp598
(dp599
g74
(dp600
g94
g95
ssg83
g594
sg76
(lp601
g414
asbag69
(g90
g71
NtRp602
(dp603
g74
(dp604
g101
g102
ssg83
g594
sg76
(lp605
S':'
asbag69
(g90
g71
NtRp606
(dp607
g74
(dp608
sg83
g594
sg76
(lp609
g69
(g70
g71
NtRp610
(dp611
g74
(dp612
g82
I3
ssg83
g606
sg76
(lp613
S''
asbasbasbag69
(g85
g71
NtRp614
(dp615
g74
(dp616
sg83
g490
sg76
(lp617
g69
(g90
g71
NtRp618
(dp619
g74
(dp620
g94
g95
ssg83
g614
sg76
(lp621
g435
asbag69
(g90
g71
NtRp622
(dp623
g74
(dp624
g101
g102
ssg83
g614
sg76
(lp625
S':'
asbag69
(g90
g71
NtRp626
(dp627
g74
(dp628
sg83
g614
sg76
(lp629
g69
(g70
g71
NtRp630
(dp631
g74
(dp632
g82
I3
ssg83
g626
sg76
(lp633
S''
asbasbasbag69
(g85
g71
NtRp634
(dp635
g74
(dp636
sg83
g490
sg76
(lp637
g69
(g90
g71
NtRp638
(dp639
g74
(dp640
g94
g95
ssg83
g634
sg76
(lp641
g456
asbag69
(g90
g71
NtRp642
(dp643
g74
(dp644
g101
g102
ssg83
g634
sg76
(lp645
S':'
asbag69
(g90
g71
NtRp646
(dp647
g74
(dp648
sg83
g634
sg76
(lp649
g69
(g70
g71
NtRp650
(dp651
g74
(dp652
g82
I3
ssg83
g646
sg76
(lp653
S''
asbasbasbasbasbasbasbag69
(g85
g71
NtRp654
(dp655
g74
(dp656
sg83
g272
sg76
(lp657
g69
(g90
g71
NtRp658
(dp659
g74
(dp660
g94
g95
ssg83
g654
sg76
(lp661
S'session_id_woppi'
p662
asbag69
(g90
g71
NtRp663
(dp664
g74
(dp665
g101
g102
ssg83
g654
sg76
(lp666
S':'
asbag69
(g90
g71
NtRp667
(dp668
g74
(dp669
sg83
g654
sg76
(lp670
g69
(g70
g71
NtRp671
(dp672
g74
(dp673
g82
I4
ssg83
g667
sg76
(lp674
g69
(g78
g71
NtRp675
(dp676
g74
(dp677
g82
I3
ssg83
Nsg76
(lp678
g69
(g85
g71
NtRp679
(dp680
g74
(dp681
sg83
g675
sg76
(lp682
g69
(g90
g71
NtRp683
(dp684
g74
(dp685
g94
g95
ssg83
g679
sg76
(lp686
g309
asbag69
(g90
g71
NtRp687
(dp688
g74
(dp689
g101
g102
ssg83
g679
sg76
(lp690
S':'
asbag69
(g90
g71
NtRp691
(dp692
g74
(dp693
sg83
g679
sg76
(lp694
g69
(g70
g71
NtRp695
(dp696
g74
(dp697
g82
I3
ssg83
g691
sg76
(lp698
S''
asbasbasbag69
(g85
g71
NtRp699
(dp700
g74
(dp701
sg83
g675
sg76
(lp702
g69
(g90
g71
NtRp703
(dp704
g74
(dp705
g94
g95
ssg83
g699
sg76
(lp706
g330
asbag69
(g90
g71
NtRp707
(dp708
g74
(dp709
g101
g102
ssg83
g699
sg76
(lp710
S':'
asbag69
(g90
g71
NtRp711
(dp712
g74
(dp713
sg83
g699
sg76
(lp714
g69
(g70
g71
NtRp715
(dp716
g74
(dp717
g82
I3
ssg83
g711
sg76
(lp718
S''
asbasbasbag69
(g85
g71
NtRp719
(dp720
g74
(dp721
sg83
g675
sg76
(lp722
g69
(g90
g71
NtRp723
(dp724
g74
(dp725
g94
g95
ssg83
g719
sg76
(lp726
g351
asbag69
(g90
g71
NtRp727
(dp728
g74
(dp729
g101
g102
ssg83
g719
sg76
(lp730
S':'
asbag69
(g90
g71
NtRp731
(dp732
g74
(dp733
sg83
g719
sg76
(lp734
g69
(g70
g71
NtRp735
(dp736
g74
(dp737
g82
I3
ssg83
g731
sg76
(lp738
S''
asbasbasbag69
(g85
g71
NtRp739
(dp740
g74
(dp741
sg83
g675
sg76
(lp742
g69
(g90
g71
NtRp743
(dp744
g74
(dp745
g94
g95
ssg83
g739
sg76
(lp746
g372
asbag69
(g90
g71
NtRp747
(dp748
g74
(dp749
g101
g102
ssg83
g739
sg76
(lp750
S':'
asbag69
(g90
g71
NtRp751
(dp752
g74
(dp753
sg83
g739
sg76
(lp754
g69
(g70
g71
NtRp755
(dp756
g74
(dp757
g82
I3
ssg83
g751
sg76
(lp758
S''
asbasbasbag69
(g85
g71
NtRp759
(dp760
g74
(dp761
sg83
g675
sg76
(lp762
g69
(g90
g71
NtRp763
(dp764
g74
(dp765
g94
g95
ssg83
g759
sg76
(lp766
g393
asbag69
(g90
g71
NtRp767
(dp768
g74
(dp769
g101
g102
ssg83
g759
sg76
(lp770
S':'
asbag69
(g90
g71
NtRp771
(dp772
g74
(dp773
sg83
g759
sg76
(lp774
g69
(g70
g71
NtRp775
(dp776
g74
(dp777
g82
I3
ssg83
g771
sg76
(lp778
S''
asbasbasbag69
(g85
g71
NtRp779
(dp780
g74
(dp781
sg83
g675
sg76
(lp782
g69
(g90
g71
NtRp783
(dp784
g74
(dp785
g94
g95
ssg83
g779
sg76
(lp786
g414
asbag69
(g90
g71
NtRp787
(dp788
g74
(dp789
g101
g102
ssg83
g779
sg76
(lp790
S':'
asbag69
(g90
g71
NtRp791
(dp792
g74
(dp793
sg83
g779
sg76
(lp794
g69
(g70
g71
NtRp795
(dp796
g74
(dp797
g82
I3
ssg83
g791
sg76
(lp798
S''
asbasbasbag69
(g85
g71
NtRp799
(dp800
g74
(dp801
sg83
g675
sg76
(lp802
g69
(g90
g71
NtRp803
(dp804
g74
(dp805
g94
g95
ssg83
g799
sg76
(lp806
g435
asbag69
(g90
g71
NtRp807
(dp808
g74
(dp809
g101
g102
ssg83
g799
sg76
(lp810
S':'
asbag69
(g90
g71
NtRp811
(dp812
g74
(dp813
sg83
g799
sg76
(lp814
g69
(g70
g71
NtRp815
(dp816
g74
(dp817
g82
I3
ssg83
g811
sg76
(lp818
S''
asbasbasbag69
(g85
g71
NtRp819
(dp820
g74
(dp821
sg83
g675
sg76
(lp822
g69
(g90
g71
NtRp823
(dp824
g74
(dp825
g94
g95
ssg83
g819
sg76
(lp826
g456
asbag69
(g90
g71
NtRp827
(dp828
g74
(dp829
g101
g102
ssg83
g819
sg76
(lp830
S':'
asbag69
(g90
g71
NtRp831
(dp832
g74
(dp833
sg83
g819
sg76
(lp834
g69
(g70
g71
NtRp835
(dp836
g74
(dp837
g82
I3
ssg83
g831
sg76
(lp838
S''
asbasbasbasbasbasbasbasbasbasbasbag69
(g85
g71
NtRp839
(dp840
g74
(dp841
sg83
g79
sg76
(lp842
g69
(g90
g71
NtRp843
(dp844
g74
(dp845
g94
g95
ssg83
g839
sg76
(lp846
S'env'
p847
asbag69
(g90
g71
NtRp848
(dp849
g74
(dp850
g101
g102
ssg83
g839
sg76
(lp851
S':'
asbag69
(g90
g71
NtRp852
(dp853
g74
(dp854
sg83
g839
sg76
(lp855
g69
(g70
g71
NtRp856
(dp857
g74
(dp858
g82
I5
ssg83
g852
sg76
(lp859
g69
(g78
g71
NtRp860
(dp861
g74
(dp862
g82
I4
ssg83
Nsg76
(lp863
g69
(g85
g71
NtRp864
(dp865
g74
(dp866
sg83
g860
sg76
(lp867
g69
(g90
g71
NtRp868
(dp869
g74
(dp870
g94
g95
ssg83
g864
sg76
(lp871
S'app_folders'
p872
asbag69
(g90
g71
NtRp873
(dp874
g74
(dp875
g101
g102
ssg83
g864
sg76
(lp876
S':'
asbag69
(g90
g71
NtRp877
(dp878
g74
(dp879
sg83
g864
sg76
(lp880
g69
(g70
g71
NtRp881
(dp882
g74
(dp883
g82
I4
ssg83
g877
sg76
(lp884
S"set(['/home/marco/projects/final/web2py/applications/woppi/', '/home/marco/projects/final/web2py/applications/admin/'])"
p885
asbasbasbag69
(g85
g71
NtRp886
(dp887
g74
(dp888
sg83
g860
sg76
(lp889
g69
(g90
g71
NtRp890
(dp891
g74
(dp892
g94
g95
ssg83
g886
sg76
(lp893
S'applications_parent'
p894
asbag69
(g90
g71
NtRp895
(dp896
g74
(dp897
g101
g102
ssg83
g886
sg76
(lp898
S':'
asbag69
(g90
g71
NtRp899
(dp900
g74
(dp901
sg83
g886
sg76
(lp902
g69
(g70
g71
NtRp903
(dp904
g74
(dp905
g82
I4
ssg83
g899
sg76
(lp906
S'/home/marco/projects/final/web2py'
p907
asbasbasbag69
(g85
g71
NtRp908
(dp909
g74
(dp910
sg83
g860
sg76
(lp911
g69
(g90
g71
NtRp912
(dp913
g74
(dp914
g94
g95
ssg83
g908
sg76
(lp915
S'cmd_args'
p916
asbag69
(g90
g71
NtRp917
(dp918
g74
(dp919
g101
g102
ssg83
g908
sg76
(lp920
S':'
asbag69
(g90
g71
NtRp921
(dp922
g74
(dp923
sg83
g908
sg76
(lp924
g69
(g70
g71
NtRp925
(dp926
g74
(dp927
g82
I4
ssg83
g921
sg76
(lp928
g69
(g78
g71
NtRp929
(dp930
g74
(dp931
g82
I3
ssg83
Nsg76
(lp932
sbasbasbasbag69
(g85
g71
NtRp933
(dp934
g74
(dp935
sg83
g860
sg76
(lp936
g69
(g90
g71
NtRp937
(dp938
g74
(dp939
g94
g95
ssg83
g933
sg76
(lp940
S'cmd_options'
p941
asbag69
(g90
g71
NtRp942
(dp943
g74
(dp944
g101
g102
ssg83
g933
sg76
(lp945
S':'
asbag69
(g90
g71
NtRp946
(dp947
g74
(dp948
sg83
g933
sg76
(lp949
g69
(g70
g71
NtRp950
(dp951
g74
(dp952
g82
I4
ssg83
g946
sg76
(lp953
S"<Values at 0x1a0f908: {'verbose': False, 'ip': '127.0.0.1', 'shutdown_timeout': 5, 'taskbar': False, 'nocron': False, 'pid_filename': 'httpserver.pid', 'maxthreads': None, 'softcron': False, 'server_name': 'malena', 'bpython': False, 'nogui': False, 'port': 8000, 'extcron': False, 'debuglevel': 30, 'test': None, 'folder': '/home/marco/projects/final/web2py', 'config': '', 'import_models': False, 'winservice': '', 'shell': None, 'run': '', 'log_filename': 'httpserver.log', 'args': [''], 'socket_timeout': 5, 'ssl_ca_certificate': None, 'scheduler': None, 'profiler_filename': None, 'ssl_private_key': '', 'password': 'asd', 'request_queue_size': 5, 'ssl_certificate': '', 'cronjob': False, 'numthreads': None, 'quiet': False, 'interfaces': None, 'minthreads': None, 'timeout': 10, 'plain': False, 'nobanner': False}>"
p954
asbasbasbag69
(g85
g71
NtRp955
(dp956
g74
(dp957
sg83
g860
sg76
(lp958
g69
(g90
g71
NtRp959
(dp960
g74
(dp961
g94
g95
ssg83
g955
sg76
(lp962
S'db_sessions'
p963
asbag69
(g90
g71
NtRp964
(dp965
g74
(dp966
g101
g102
ssg83
g955
sg76
(lp967
S':'
asbag69
(g90
g71
NtRp968
(dp969
g74
(dp970
sg83
g955
sg76
(lp971
g69
(g70
g71
NtRp972
(dp973
g74
(dp974
g82
I4
ssg83
g968
sg76
(lp975
S'set([])'
p976
asbasbasbag69
(g85
g71
NtRp977
(dp978
g74
(dp979
sg83
g860
sg76
(lp980
g69
(g90
g71
NtRp981
(dp982
g74
(dp983
g94
g95
ssg83
g977
sg76
(lp984
S'debugging'
p985
asbag69
(g90
g71
NtRp986
(dp987
g74
(dp988
g101
g102
ssg83
g977
sg76
(lp989
S':'
asbag69
(g90
g71
NtRp990
(dp991
g74
(dp992
sg83
g977
sg76
(lp993
g69
(g70
g71
NtRp994
(dp995
g74
(dp996
g82
I4
ssg83
g990
sg76
(lp997
g112
asbasbasbag69
(g85
g71
NtRp998
(dp999
g74
(dp1000
sg83
g860
sg76
(lp1001
g69
(g90
g71
NtRp1002
(dp1003
g74
(dp1004
g94
g95
ssg83
g998
sg76
(lp1005
S'gluon_parent'
p1006
asbag69
(g90
g71
NtRp1007
(dp1008
g74
(dp1009
g101
g102
ssg83
g998
sg76
(lp1010
S':'
asbag69
(g90
g71
NtRp1011
(dp1012
g74
(dp1013
sg83
g998
sg76
(lp1014
g69
(g70
g71
NtRp1015
(dp1016
g74
(dp1017
g82
I4
ssg83
g1011
sg76
(lp1018
S'/home/marco/projects/final/web2py'
p1019
asbasbasbag69
(g85
g71
NtRp1020
(dp1021
g74
(dp1022
sg83
g860
sg76
(lp1023
g69
(g90
g71
NtRp1024
(dp1025
g74
(dp1026
g94
g95
ssg83
g1020
sg76
(lp1027
S'http_accept'
p1028
asbag69
(g90
g71
NtRp1029
(dp1030
g74
(dp1031
g101
g102
ssg83
g1020
sg76
(lp1032
S':'
asbag69
(g90
g71
NtRp1033
(dp1034
g74
(dp1035
sg83
g1020
sg76
(lp1036
g69
(g70
g71
NtRp1037
(dp1038
g74
(dp1039
g82
I4
ssg83
g1033
sg76
(lp1040
S'text/html,application/xhtml+xml,application/xml;q=0.9,*/*;q=0.8'
p1041
asbasbasbag69
(g85
g71
NtRp1042
(dp1043
g74
(dp1044
sg83
g860
sg76
(lp1045
g69
(g90
g71
NtRp1046
(dp1047
g74
(dp1048
g94
g95
ssg83
g1042
sg76
(lp1049
S'http_accept_encoding'
p1050
asbag69
(g90
g71
NtRp1051
(dp1052
g74
(dp1053
g101
g102
ssg83
g1042
sg76
(lp1054
S':'
asbag69
(g90
g71
NtRp1055
(dp1056
g74
(dp1057
sg83
g1042
sg76
(lp1058
g69
(g70
g71
NtRp1059
(dp1060
g74
(dp1061
g82
I4
ssg83
g1055
sg76
(lp1062
S'gzip, deflate'
p1063
asbasbasbag69
(g85
g71
NtRp1064
(dp1065
g74
(dp1066
sg83
g860
sg76
(lp1067
g69
(g90
g71
NtRp1068
(dp1069
g74
(dp1070
g94
g95
ssg83
g1064
sg76
(lp1071
S'http_accept_language'
p1072
asbag69
(g90
g71
NtRp1073
(dp1074
g74
(dp1075
g101
g102
ssg83
g1064
sg76
(lp1076
S':'
asbag69
(g90
g71
NtRp1077
(dp1078
g74
(dp1079
sg83
g1064
sg76
(lp1080
g69
(g70
g71
NtRp1081
(dp1082
g74
(dp1083
g82
I4
ssg83
g1077
sg76
(lp1084
S'es-ar,es;q=0.8,en-us;q=0.5,en;q=0.3'
p1085
asbasbasbag69
(g85
g71
NtRp1086
(dp1087
g74
(dp1088
sg83
g860
sg76
(lp1089
g69
(g90
g71
NtRp1090
(dp1091
g74
(dp1092
g94
g95
ssg83
g1086
sg76
(lp1093
S'http_cache_control'
p1094
asbag69
(g90
g71
NtRp1095
(dp1096
g74
(dp1097
g101
g102
ssg83
g1086
sg76
(lp1098
S':'
asbag69
(g90
g71
NtRp1099
(dp1100
g74
(dp1101
sg83
g1086
sg76
(lp1102
g69
(g70
g71
NtRp1103
(dp1104
g74
(dp1105
g82
I4
ssg83
g1099
sg76
(lp1106
S'max-age=0'
p1107
asbasbasbag69
(g85
g71
NtRp1108
(dp1109
g74
(dp1110
sg83
g860
sg76
(lp1111
g69
(g90
g71
NtRp1112
(dp1113
g74
(dp1114
g94
g95
ssg83
g1108
sg76
(lp1115
S'http_connection'
p1116
asbag69
(g90
g71
NtRp1117
(dp1118
g74
(dp1119
g101
g102
ssg83
g1108
sg76
(lp1120
S':'
asbag69
(g90
g71
NtRp1121
(dp1122
g74
(dp1123
sg83
g1108
sg76
(lp1124
g69
(g70
g71
NtRp1125
(dp1126
g74
(dp1127
g82
I4
ssg83
g1121
sg76
(lp1128
S'keep-alive'
p1129
asbasbasbag69
(g85
g71
NtRp1130
(dp1131
g74
(dp1132
sg83
g860
sg76
(lp1133
g69
(g90
g71
NtRp1134
(dp1135
g74
(dp1136
g94
g95
ssg83
g1130
sg76
(lp1137
S'http_cookie'
p1138
asbag69
(g90
g71
NtRp1139
(dp1140
g74
(dp1141
g101
g102
ssg83
g1130
sg76
(lp1142
S':'
asbag69
(g90
g71
NtRp1143
(dp1144
g74
(dp1145
sg83
g1130
sg76
(lp1146
g69
(g70
g71
NtRp1147
(dp1148
g74
(dp1149
g82
I4
ssg83
g1143
sg76
(lp1150
S'__utma=96992031.1881515701.1331265087.1331778935.1331861747.16; __utmz=96992031.1331265087.1.1.utmcsr=(direct)|utmccn=(direct)|utmcmd=(none); session_id_admin=127.0.0.1-6391131b-bbe0-402e-9864-2d8f398d839e; session_id_slidetest=127.0.0.1-db01a024-9f51-4aee-a2ae-25f574739fdc; session_id_woppi=127.0.0.1-5358e1c7-4082-415c-902e-9d9a4b1fcb2a'
p1151
asbasbasbag69
(g85
g71
NtRp1152
(dp1153
g74
(dp1154
sg83
g860
sg76
(lp1155
g69
(g90
g71
NtRp1156
(dp1157
g74
(dp1158
g94
g95
ssg83
g1152
sg76
(lp1159
S'http_host'
p1160
asbag69
(g90
g71
NtRp1161
(dp1162
g74
(dp1163
g101
g102
ssg83
g1152
sg76
(lp1164
S':'
asbag69
(g90
g71
NtRp1165
(dp1166
g74
(dp1167
sg83
g1152
sg76
(lp1168
g69
(g70
g71
NtRp1169
(dp1170
g74
(dp1171
g82
I4
ssg83
g1165
sg76
(lp1172
S'127.0.0.1:8000'
p1173
asbasbasbag69
(g85
g71
NtRp1174
(dp1175
g74
(dp1176
sg83
g860
sg76
(lp1177
g69
(g90
g71
NtRp1178
(dp1179
g74
(dp1180
g94
g95
ssg83
g1174
sg76
(lp1181
S'http_referer'
p1182
asbag69
(g90
g71
NtRp1183
(dp1184
g74
(dp1185
g101
g102
ssg83
g1174
sg76
(lp1186
S':'
asbag69
(g90
g71
NtRp1187
(dp1188
g74
(dp1189
sg83
g1174
sg76
(lp1190
g69
(g70
g71
NtRp1191
(dp1192
g74
(dp1193
g82
I4
ssg83
g1187
sg76
(lp1194
S'http://127.0.0.1:8000/woppi/interno/personal'
p1195
asbasbasbag69
(g85
g71
NtRp1196
(dp1197
g74
(dp1198
sg83
g860
sg76
(lp1199
g69
(g90
g71
NtRp1200
(dp1201
g74
(dp1202
g94
g95
ssg83
g1196
sg76
(lp1203
S'http_user_agent'
p1204
asbag69
(g90
g71
NtRp1205
(dp1206
g74
(dp1207
g101
g102
ssg83
g1196
sg76
(lp1208
S':'
asbag69
(g90
g71
NtRp1209
(dp1210
g74
(dp1211
sg83
g1196
sg76
(lp1212
g69
(g70
g71
NtRp1213
(dp1214
g74
(dp1215
g82
I4
ssg83
g1209
sg76
(lp1216
S'Mozilla/5.0 (X11; Linux x86_64; rv:11.0) Gecko/20100101 Firefox/11.0 Iceweasel/11.0'
p1217
asbasbasbag69
(g85
g71
NtRp1218
(dp1219
g74
(dp1220
sg83
g860
sg76
(lp1221
g69
(g90
g71
NtRp1222
(dp1223
g74
(dp1224
g94
g95
ssg83
g1218
sg76
(lp1225
S'is_jython'
p1226
asbag69
(g90
g71
NtRp1227
(dp1228
g74
(dp1229
g101
g102
ssg83
g1218
sg76
(lp1230
S':'
asbag69
(g90
g71
NtRp1231
(dp1232
g74
(dp1233
sg83
g1218
sg76
(lp1234
g69
(g70
g71
NtRp1235
(dp1236
g74
(dp1237
g82
I4
ssg83
g1231
sg76
(lp1238
g112
asbasbasbag69
(g85
g71
NtRp1239
(dp1240
g74
(dp1241
sg83
g860
sg76
(lp1242
g69
(g90
g71
NtRp1243
(dp1244
g74
(dp1245
g94
g95
ssg83
g1239
sg76
(lp1246
S'is_pypy'
p1247
asbag69
(g90
g71
NtRp1248
(dp1249
g74
(dp1250
g101
g102
ssg83
g1239
sg76
(lp1251
S':'
asbag69
(g90
g71
NtRp1252
(dp1253
g74
(dp1254
sg83
g1239
sg76
(lp1255
g69
(g70
g71
NtRp1256
(dp1257
g74
(dp1258
g82
I4
ssg83
g1252
sg76
(lp1259
g112
asbasbasbag69
(g85
g71
NtRp1260
(dp1261
g74
(dp1262
sg83
g860
sg76
(lp1263
g69
(g90
g71
NtRp1264
(dp1265
g74
(dp1266
g94
g95
ssg83
g1260
sg76
(lp1267
S'path_info'
p1268
asbag69
(g90
g71
NtRp1269
(dp1270
g74
(dp1271
g101
g102
ssg83
g1260
sg76
(lp1272
S':'
asbag69
(g90
g71
NtRp1273
(dp1274
g74
(dp1275
sg83
g1260
sg76
(lp1276
g69
(g70
g71
NtRp1277
(dp1278
g74
(dp1279
g82
I4
ssg83
g1273
sg76
(lp1280
S'/woppi/interno/personal/new/personal'
p1281
asbasbasbag69
(g85
g71
NtRp1282
(dp1283
g74
(dp1284
sg83
g860
sg76
(lp1285
g69
(g90
g71
NtRp1286
(dp1287
g74
(dp1288
g94
g95
ssg83
g1282
sg76
(lp1289
S'query_string'
p1290
asbag69
(g90
g71
NtRp1291
(dp1292
g74
(dp1293
g101
g102
ssg83
g1282
sg76
(lp1294
S':'
asbag69
(g90
g71
NtRp1295
(dp1296
g74
(dp1297
sg83
g1282
sg76
(lp1298
g69
(g70
g71
NtRp1299
(dp1300
g74
(dp1301
g82
I4
ssg83
g1295
sg76
(lp1302
S''
asbasbasbag69
(g85
g71
NtRp1303
(dp1304
g74
(dp1305
sg83
g860
sg76
(lp1306
g69
(g90
g71
NtRp1307
(dp1308
g74
(dp1309
g94
g95
ssg83
g1303
sg76
(lp1310
S'remote_addr'
p1311
asbag69
(g90
g71
NtRp1312
(dp1313
g74
(dp1314
g101
g102
ssg83
g1303
sg76
(lp1315
S':'
asbag69
(g90
g71
NtRp1316
(dp1317
g74
(dp1318
sg83
g1303
sg76
(lp1319
g69
(g70
g71
NtRp1320
(dp1321
g74
(dp1322
g82
I4
ssg83
g1316
sg76
(lp1323
g228
asbasbasbag69
(g85
g71
NtRp1324
(dp1325
g74
(dp1326
sg83
g860
sg76
(lp1327
g69
(g90
g71
NtRp1328
(dp1329
g74
(dp1330
g94
g95
ssg83
g1324
sg76
(lp1331
S'remote_port'
p1332
asbag69
(g90
g71
NtRp1333
(dp1334
g74
(dp1335
g101
g102
ssg83
g1324
sg76
(lp1336
S':'
asbag69
(g90
g71
NtRp1337
(dp1338
g74
(dp1339
sg83
g1324
sg76
(lp1340
g69
(g70
g71
NtRp1341
(dp1342
g74
(dp1343
g82
I4
ssg83
g1337
sg76
(lp1344
S'42940'
p1345
asbasbasbag69
(g85
g71
NtRp1346
(dp1347
g74
(dp1348
sg83
g860
sg76
(lp1349
g69
(g90
g71
NtRp1350
(dp1351
g74
(dp1352
g94
g95
ssg83
g1346
sg76
(lp1353
S'request_method'
p1354
asbag69
(g90
g71
NtRp1355
(dp1356
g74
(dp1357
g101
g102
ssg83
g1346
sg76
(lp1358
S':'
asbag69
(g90
g71
NtRp1359
(dp1360
g74
(dp1361
sg83
g1346
sg76
(lp1362
g69
(g70
g71
NtRp1363
(dp1364
g74
(dp1365
g82
I4
ssg83
g1359
sg76
(lp1366
S'GET'
p1367
asbasbasbag69
(g85
g71
NtRp1368
(dp1369
g74
(dp1370
sg83
g860
sg76
(lp1371
g69
(g90
g71
NtRp1372
(dp1373
g74
(dp1374
g94
g95
ssg83
g1368
sg76
(lp1375
S'script_name'
p1376
asbag69
(g90
g71
NtRp1377
(dp1378
g74
(dp1379
g101
g102
ssg83
g1368
sg76
(lp1380
S':'
asbag69
(g90
g71
NtRp1381
(dp1382
g74
(dp1383
sg83
g1368
sg76
(lp1384
g69
(g70
g71
NtRp1385
(dp1386
g74
(dp1387
g82
I4
ssg83
g1381
sg76
(lp1388
S''
asbasbasbag69
(g85
g71
NtRp1389
(dp1390
g74
(dp1391
sg83
g860
sg76
(lp1392
g69
(g90
g71
NtRp1393
(dp1394
g74
(dp1395
g94
g95
ssg83
g1389
sg76
(lp1396
S'server_name'
p1397
asbag69
(g90
g71
NtRp1398
(dp1399
g74
(dp1400
g101
g102
ssg83
g1389
sg76
(lp1401
S':'
asbag69
(g90
g71
NtRp1402
(dp1403
g74
(dp1404
sg83
g1389
sg76
(lp1405
g69
(g70
g71
NtRp1406
(dp1407
g74
(dp1408
g82
I4
ssg83
g1402
sg76
(lp1409
S'malena'
p1410
asbasbasbag69
(g85
g71
NtRp1411
(dp1412
g74
(dp1413
sg83
g860
sg76
(lp1414
g69
(g90
g71
NtRp1415
(dp1416
g74
(dp1417
g94
g95
ssg83
g1411
sg76
(lp1418
S'server_port'
p1419
asbag69
(g90
g71
NtRp1420
(dp1421
g74
(dp1422
g101
g102
ssg83
g1411
sg76
(lp1423
S':'
asbag69
(g90
g71
NtRp1424
(dp1425
g74
(dp1426
sg83
g1411
sg76
(lp1427
g69
(g70
g71
NtRp1428
(dp1429
g74
(dp1430
g82
I4
ssg83
g1424
sg76
(lp1431
S'8000'
p1432
asbasbasbag69
(g85
g71
NtRp1433
(dp1434
g74
(dp1435
sg83
g860
sg76
(lp1436
g69
(g90
g71
NtRp1437
(dp1438
g74
(dp1439
g94
g95
ssg83
g1433
sg76
(lp1440
S'server_protocol'
p1441
asbag69
(g90
g71
NtRp1442
(dp1443
g74
(dp1444
g101
g102
ssg83
g1433
sg76
(lp1445
S':'
asbag69
(g90
g71
NtRp1446
(dp1447
g74
(dp1448
sg83
g1433
sg76
(lp1449
g69
(g70
g71
NtRp1450
(dp1451
g74
(dp1452
g82
I4
ssg83
g1446
sg76
(lp1453
S'HTTP/1.1'
p1454
asbasbasbag69
(g85
g71
NtRp1455
(dp1456
g74
(dp1457
sg83
g860
sg76
(lp1458
g69
(g90
g71
NtRp1459
(dp1460
g74
(dp1461
g94
g95
ssg83
g1455
sg76
(lp1462
S'server_software'
p1463
asbag69
(g90
g71
NtRp1464
(dp1465
g74
(dp1466
g101
g102
ssg83
g1455
sg76
(lp1467
S':'
asbag69
(g90
g71
NtRp1468
(dp1469
g74
(dp1470
sg83
g1455
sg76
(lp1471
g69
(g70
g71
NtRp1472
(dp1473
g74
(dp1474
g82
I4
ssg83
g1468
sg76
(lp1475
S'Rocket 1.2.4'
p1476
asbasbasbag69
(g85
g71
NtRp1477
(dp1478
g74
(dp1479
sg83
g860
sg76
(lp1480
g69
(g90
g71
NtRp1481
(dp1482
g74
(dp1483
g94
g95
ssg83
g1477
sg76
(lp1484
S'web2py_crontype'
p1485
asbag69
(g90
g71
NtRp1486
(dp1487
g74
(dp1488
g101
g102
ssg83
g1477
sg76
(lp1489
S':'
asbag69
(g90
g71
NtRp1490
(dp1491
g74
(dp1492
sg83
g1477
sg76
(lp1493
g69
(g70
g71
NtRp1494
(dp1495
g74
(dp1496
g82
I4
ssg83
g1490
sg76
(lp1497
S'hard'
p1498
asbasbasbag69
(g85
g71
NtRp1499
(dp1500
g74
(dp1501
sg83
g860
sg76
(lp1502
g69
(g90
g71
NtRp1503
(dp1504
g74
(dp1505
g94
g95
ssg83
g1499
sg76
(lp1506
S'web2py_path'
p1507
asbag69
(g90
g71
NtRp1508
(dp1509
g74
(dp1510
g101
g102
ssg83
g1499
sg76
(lp1511
S':'
asbag69
(g90
g71
NtRp1512
(dp1513
g74
(dp1514
sg83
g1499
sg76
(lp1515
g69
(g70
g71
NtRp1516
(dp1517
g74
(dp1518
g82
I4
ssg83
g1512
sg76
(lp1519
g907
asbasbasbag69
(g85
g71
NtRp1520
(dp1521
g74
(dp1522
sg83
g860
sg76
(lp1523
g69
(g90
g71
NtRp1524
(dp1525
g74
(dp1526
g94
g95
ssg83
g1520
sg76
(lp1527
S'web2py_version'
p1528
asbag69
(g90
g71
NtRp1529
(dp1530
g74
(dp1531
g101
g102
ssg83
g1520
sg76
(lp1532
S':'
asbag69
(g90
g71
NtRp1533
(dp1534
g74
(dp1535
sg83
g1520
sg76
(lp1536
g69
(g70
g71
NtRp1537
(dp1538
g74
(dp1539
g82
I4
ssg83
g1533
sg76
(lp1540
g69
(g78
g71
NtRp1541
(dp1542
g74
(dp1543
g82
I3
ssg83
Nsg76
(lp1544
g69
(g85
g71
NtRp1545
(dp1546
g74
(dp1547
sg83
g1541
sg76
(lp1548
g69
(g90
g71
NtRp1549
(dp1550
g74
(dp1551
sg83
g1545
sg76
(lp1552
g69
(g70
g71
NtRp1553
(dp1554
g74
(dp1555
g82
I3
ssg83
g1549
sg76
(lp1556
S'1'
asbasbasbag69
(g85
g71
NtRp1557
(dp1558
g74
(dp1559
sg83
g1541
sg76
(lp1560
g69
(g90
g71
NtRp1561
(dp1562
g74
(dp1563
sg83
g1557
sg76
(lp1564
g69
(g70
g71
NtRp1565
(dp1566
g74
(dp1567
g82
I3
ssg83
g1561
sg76
(lp1568
S'99'
p1569
asbasbasbag69
(g85
g71
NtRp1570
(dp1571
g74
(dp1572
sg83
g1541
sg76
(lp1573
g69
(g90
g71
NtRp1574
(dp1575
g74
(dp1576
sg83
g1570
sg76
(lp1577
g69
(g70
g71
NtRp1578
(dp1579
g74
(dp1580
g82
I3
ssg83
g1574
sg76
(lp1581
S'7'
asbasbasbag69
(g85
g71
NtRp1582
(dp1583
g74
(dp1584
sg83
g1541
sg76
(lp1585
g69
(g90
g71
NtRp1586
(dp1587
g74
(dp1588
sg83
g1582
sg76
(lp1589
g69
(g70
g71
NtRp1590
(dp1591
g74
(dp1592
g82
I3
ssg83
g1586
sg76
(lp1593
S'datetime.datetime(2012, 3, 4, 22, 12, 8)'
p1594
asbasbasbag69
(g85
g71
NtRp1595
(dp1596
g74
(dp1597
sg83
g1541
sg76
(lp1598
g69
(g90
g71
NtRp1599
(dp1600
g74
(dp1601
sg83
g1595
sg76
(lp1602
g69
(g70
g71
NtRp1603
(dp1604
g74
(dp1605
g82
I3
ssg83
g1599
sg76
(lp1606
S'stable'
p1607
asbasbasbasbasbasbasbag69
(g85
g71
NtRp1608
(dp1609
g74
(dp1610
sg83
g860
sg76
(lp1611
g69
(g90
g71
NtRp1612
(dp1613
g74
(dp1614
g94
g95
ssg83
g1608
sg76
(lp1615
S'wsgi_errors'
p1616
asbag69
(g90
g71
NtRp1617
(dp1618
g74
(dp1619
g101
g102
ssg83
g1608
sg76
(lp1620
S':'
asbag69
(g90
g71
NtRp1621
(dp1622
g74
(dp1623
sg83
g1608
sg76
(lp1624
g69
(g70
g71
NtRp1625
(dp1626
g74
(dp1627
g82
I4
ssg83
g1621
sg76
(lp1628
S"<open file '<stderr>', mode 'w' at 0x7fbda4e96270>"
p1629
asbasbasbag69
(g85
g71
NtRp1630
(dp1631
g74
(dp1632
sg83
g860
sg76
(lp1633
g69
(g90
g71
NtRp1634
(dp1635
g74
(dp1636
g94
g95
ssg83
g1630
sg76
(lp1637
S'wsgi_file_wrapper'
p1638
asbag69
(g90
g71
NtRp1639
(dp1640
g74
(dp1641
g101
g102
ssg83
g1630
sg76
(lp1642
S':'
asbag69
(g90
g71
NtRp1643
(dp1644
g74
(dp1645
sg83
g1630
sg76
(lp1646
g69
(g70
g71
NtRp1647
(dp1648
g74
(dp1649
g82
I4
ssg83
g1643
sg76
(lp1650
S'<class wsgiref.util.FileWrapper at 0x18fe0b8>'
p1651
asbasbasbag69
(g85
g71
NtRp1652
(dp1653
g74
(dp1654
sg83
g860
sg76
(lp1655
g69
(g90
g71
NtRp1656
(dp1657
g74
(dp1658
g94
g95
ssg83
g1652
sg76
(lp1659
S'wsgi_input'
p1660
asbag69
(g90
g71
NtRp1661
(dp1662
g74
(dp1663
g101
g102
ssg83
g1652
sg76
(lp1664
S':'
asbag69
(g90
g71
NtRp1665
(dp1666
g74
(dp1667
sg83
g1652
sg76
(lp1668
g69
(g70
g71
NtRp1669
(dp1670
g74
(dp1671
g82
I4
ssg83
g1665
sg76
(lp1672
S'<socket._fileobject object at 0x33451d0>'
p1673
asbasbasbag69
(g85
g71
NtRp1674
(dp1675
g74
(dp1676
sg83
g860
sg76
(lp1677
g69
(g90
g71
NtRp1678
(dp1679
g74
(dp1680
g94
g95
ssg83
g1674
sg76
(lp1681
S'wsgi_multiprocess'
p1682
asbag69
(g90
g71
NtRp1683
(dp1684
g74
(dp1685
g101
g102
ssg83
g1674
sg76
(lp1686
S':'
asbag69
(g90
g71
NtRp1687
(dp1688
g74
(dp1689
sg83
g1674
sg76
(lp1690
g69
(g70
g71
NtRp1691
(dp1692
g74
(dp1693
g82
I4
ssg83
g1687
sg76
(lp1694
g112
asbasbasbag69
(g85
g71
NtRp1695
(dp1696
g74
(dp1697
sg83
g860
sg76
(lp1698
g69
(g90
g71
NtRp1699
(dp1700
g74
(dp1701
g94
g95
ssg83
g1695
sg76
(lp1702
S'wsgi_multithread'
p1703
asbag69
(g90
g71
NtRp1704
(dp1705
g74
(dp1706
g101
g102
ssg83
g1695
sg76
(lp1707
S':'
asbag69
(g90
g71
NtRp1708
(dp1709
g74
(dp1710
sg83
g1695
sg76
(lp1711
g69
(g70
g71
NtRp1712
(dp1713
g74
(dp1714
g82
I4
ssg83
g1708
sg76
(lp1715
S'True'
p1716
asbasbasbag69
(g85
g71
NtRp1717
(dp1718
g74
(dp1719
sg83
g860
sg76
(lp1720
g69
(g90
g71
NtRp1721
(dp1722
g74
(dp1723
g94
g95
ssg83
g1717
sg76
(lp1724
S'wsgi_run_once'
p1725
asbag69
(g90
g71
NtRp1726
(dp1727
g74
(dp1728
g101
g102
ssg83
g1717
sg76
(lp1729
S':'
asbag69
(g90
g71
NtRp1730
(dp1731
g74
(dp1732
sg83
g1717
sg76
(lp1733
g69
(g70
g71
NtRp1734
(dp1735
g74
(dp1736
g82
I4
ssg83
g1730
sg76
(lp1737
g112
asbasbasbag69
(g85
g71
NtRp1738
(dp1739
g74
(dp1740
sg83
g860
sg76
(lp1741
g69
(g90
g71
NtRp1742
(dp1743
g74
(dp1744
g94
g95
ssg83
g1738
sg76
(lp1745
S'wsgi_url_scheme'
p1746
asbag69
(g90
g71
NtRp1747
(dp1748
g74
(dp1749
g101
g102
ssg83
g1738
sg76
(lp1750
S':'
asbag69
(g90
g71
NtRp1751
(dp1752
g74
(dp1753
sg83
g1738
sg76
(lp1754
g69
(g70
g71
NtRp1755
(dp1756
g74
(dp1757
g82
I4
ssg83
g1751
sg76
(lp1758
S'http'
p1759
asbasbasbag69
(g85
g71
NtRp1760
(dp1761
g74
(dp1762
sg83
g860
sg76
(lp1763
g69
(g90
g71
NtRp1764
(dp1765
g74
(dp1766
g94
g95
ssg83
g1760
sg76
(lp1767
S'wsgi_version'
p1768
asbag69
(g90
g71
NtRp1769
(dp1770
g74
(dp1771
g101
g102
ssg83
g1760
sg76
(lp1772
S':'
asbag69
(g90
g71
NtRp1773
(dp1774
g74
(dp1775
sg83
g1760
sg76
(lp1776
g69
(g70
g71
NtRp1777
(dp1778
g74
(dp1779
g82
I4
ssg83
g1773
sg76
(lp1780
g69
(g78
g71
NtRp1781
(dp1782
g74
(dp1783
g82
I3
ssg83
Nsg76
(lp1784
g69
(g85
g71
NtRp1785
(dp1786
g74
(dp1787
sg83
g1781
sg76
(lp1788
g69
(g90
g71
NtRp1789
(dp1790
g74
(dp1791
sg83
g1785
sg76
(lp1792
g69
(g70
g71
NtRp1793
(dp1794
g74
(dp1795
g82
I3
ssg83
g1789
sg76
(lp1796
S'1'
asbasbasbag69
(g85
g71
NtRp1797
(dp1798
g74
(dp1799
sg83
g1781
sg76
(lp1800
g69
(g90
g71
NtRp1801
(dp1802
g74
(dp1803
sg83
g1797
sg76
(lp1804
g69
(g70
g71
NtRp1805
(dp1806
g74
(dp1807
g82
I3
ssg83
g1801
sg76
(lp1808
S'0'
asbasbasbasbasbasbasbasbasbasbasbag69
(g85
g71
NtRp1809
(dp1810
g74
(dp1811
sg83
g79
sg76
(lp1812
g69
(g90
g71
NtRp1813
(dp1814
g74
(dp1815
g94
g95
ssg83
g1809
sg76
(lp1816
S'extension'
p1817
asbag69
(g90
g71
NtRp1818
(dp1819
g74
(dp1820
g101
g102
ssg83
g1809
sg76
(lp1821
S':'
asbag69
(g90
g71
NtRp1822
(dp1823
g74
(dp1824
sg83
g1809
sg76
(lp1825
g69
(g70
g71
NtRp1826
(dp1827
g74
(dp1828
g82
I5
ssg83
g1822
sg76
(lp1829
S'html'
p1830
asbasbasbag69
(g85
g71
NtRp1831
(dp1832
g74
(dp1833
sg83
g79
sg76
(lp1834
g69
(g90
g71
NtRp1835
(dp1836
g74
(dp1837
g94
g95
ssg83
g1831
sg76
(lp1838
S'folder'
p1839
asbag69
(g90
g71
NtRp1840
(dp1841
g74
(dp1842
g101
g102
ssg83
g1831
sg76
(lp1843
S':'
asbag69
(g90
g71
NtRp1844
(dp1845
g74
(dp1846
sg83
g1831
sg76
(lp1847
g69
(g70
g71
NtRp1848
(dp1849
g74
(dp1850
g82
I5
ssg83
g1844
sg76
(lp1851
S'/home/marco/projects/final/web2py/applications/woppi/'
p1852
asbasbasbag69
(g85
g71
NtRp1853
(dp1854
g74
(dp1855
sg83
g79
sg76
(lp1856
g69
(g90
g71
NtRp1857
(dp1858
g74
(dp1859
g94
g95
ssg83
g1853
sg76
(lp1860
S'function'
p1861
asbag69
(g90
g71
NtRp1862
(dp1863
g74
(dp1864
g101
g102
ssg83
g1853
sg76
(lp1865
S':'
asbag69
(g90
g71
NtRp1866
(dp1867
g74
(dp1868
sg83
g1853
sg76
(lp1869
g69
(g70
g71
NtRp1870
(dp1871
g74
(dp1872
g82
I5
ssg83
g1866
sg76
(lp1873
S'personal'
p1874
asbasbasbag69
(g85
g71
NtRp1875
(dp1876
g74
(dp1877
sg83
g79
sg76
(lp1878
g69
(g90
g71
NtRp1879
(dp1880
g74
(dp1881
g94
g95
ssg83
g1875
sg76
(lp1882
S'get_vars'
p1883
asbag69
(g90
g71
NtRp1884
(dp1885
g74
(dp1886
g101
g102
ssg83
g1875
sg76
(lp1887
S':'
asbag69
(g90
g71
NtRp1888
(dp1889
g74
(dp1890
sg83
g1875
sg76
(lp1891
g69
(g70
g71
NtRp1892
(dp1893
g74
(dp1894
g82
I5
ssg83
g1888
sg76
(lp1895
g69
(g78
g71
NtRp1896
(dp1897
g74
(dp1898
g82
I4
ssg83
Nsg76
(lp1899
sbasbasbasbag69
(g85
g71
NtRp1900
(dp1901
g74
(dp1902
sg83
g79
sg76
(lp1903
g69
(g90
g71
NtRp1904
(dp1905
g74
(dp1906
g94
g95
ssg83
g1900
sg76
(lp1907
S'global_settings'
p1908
asbag69
(g90
g71
NtRp1909
(dp1910
g74
(dp1911
g101
g102
ssg83
g1900
sg76
(lp1912
S':'
asbag69
(g90
g71
NtRp1913
(dp1914
g74
(dp1915
sg83
g1900
sg76
(lp1916
g69
(g70
g71
NtRp1917
(dp1918
g74
(dp1919
g82
I5
ssg83
g1913
sg76
(lp1920
g69
(g78
g71
NtRp1921
(dp1922
g74
(dp1923
g82
I4
ssg83
Nsg76
(lp1924
g69
(g85
g71
NtRp1925
(dp1926
g74
(dp1927
sg83
g1921
sg76
(lp1928
g69
(g90
g71
NtRp1929
(dp1930
g74
(dp1931
g94
g95
ssg83
g1925
sg76
(lp1932
g872
asbag69
(g90
g71
NtRp1933
(dp1934
g74
(dp1935
g101
g102
ssg83
g1925
sg76
(lp1936
S':'
asbag69
(g90
g71
NtRp1937
(dp1938
g74
(dp1939
sg83
g1925
sg76
(lp1940
g69
(g70
g71
NtRp1941
(dp1942
g74
(dp1943
g82
I4
ssg83
g1937
sg76
(lp1944
S"set(['/home/marco/projects/final/web2py/applications/woppi/', '/home/marco/projects/final/web2py/applications/admin/'])"
p1945
asbasbasbag69
(g85
g71
NtRp1946
(dp1947
g74
(dp1948
sg83
g1921
sg76
(lp1949
g69
(g90
g71
NtRp1950
(dp1951
g74
(dp1952
g94
g95
ssg83
g1946
sg76
(lp1953
g894
asbag69
(g90
g71
NtRp1954
(dp1955
g74
(dp1956
g101
g102
ssg83
g1946
sg76
(lp1957
S':'
asbag69
(g90
g71
NtRp1958
(dp1959
g74
(dp1960
sg83
g1946
sg76
(lp1961
g69
(g70
g71
NtRp1962
(dp1963
g74
(dp1964
g82
I4
ssg83
g1958
sg76
(lp1965
g907
asbasbasbag69
(g85
g71
NtRp1966
(dp1967
g74
(dp1968
sg83
g1921
sg76
(lp1969
g69
(g90
g71
NtRp1970
(dp1971
g74
(dp1972
g94
g95
ssg83
g1966
sg76
(lp1973
g916
asbag69
(g90
g71
NtRp1974
(dp1975
g74
(dp1976
g101
g102
ssg83
g1966
sg76
(lp1977
S':'
asbag69
(g90
g71
NtRp1978
(dp1979
g74
(dp1980
sg83
g1966
sg76
(lp1981
g69
(g70
g71
NtRp1982
(dp1983
g74
(dp1984
g82
I4
ssg83
g1978
sg76
(lp1985
g69
(g78
g71
NtRp1986
(dp1987
g74
(dp1988
g82
I3
ssg83
Nsg76
(lp1989
sbasbasbasbag69
(g85
g71
NtRp1990
(dp1991
g74
(dp1992
sg83
g1921
sg76
(lp1993
g69
(g90
g71
NtRp1994
(dp1995
g74
(dp1996
g94
g95
ssg83
g1990
sg76
(lp1997
g941
asbag69
(g90
g71
NtRp1998
(dp1999
g74
(dp2000
g101
g102
ssg83
g1990
sg76
(lp2001
S':'
asbag69
(g90
g71
NtRp2002
(dp2003
g74
(dp2004
sg83
g1990
sg76
(lp2005
g69
(g70
g71
NtRp2006
(dp2007
g74
(dp2008
g82
I4
ssg83
g2002
sg76
(lp2009
S"<Values at 0x1a0f908: {'verbose': False, 'ip': '127.0.0.1', 'shutdown_timeout': 5, 'taskbar': False, 'nocron': False, 'pid_filename': 'httpserver.pid', 'maxthreads': None, 'softcron': False, 'server_name': 'malena', 'bpython': False, 'nogui': False, 'port': 8000, 'extcron': False, 'debuglevel': 30, 'test': None, 'folder': '/home/marco/projects/final/web2py', 'config': '', 'import_models': False, 'winservice': '', 'shell': None, 'run': '', 'log_filename': 'httpserver.log', 'args': [''], 'socket_timeout': 5, 'ssl_ca_certificate': None, 'scheduler': None, 'profiler_filename': None, 'ssl_private_key': '', 'password': 'asd', 'request_queue_size': 5, 'ssl_certificate': '', 'cronjob': False, 'numthreads': None, 'quiet': False, 'interfaces': None, 'minthreads': None, 'timeout': 10, 'plain': False, 'nobanner': False}>"
p2010
asbasbasbag69
(g85
g71
NtRp2011
(dp2012
g74
(dp2013
sg83
g1921
sg76
(lp2014
g69
(g90
g71
NtRp2015
(dp2016
g74
(dp2017
g94
g95
ssg83
g2011
sg76
(lp2018
g963
asbag69
(g90
g71
NtRp2019
(dp2020
g74
(dp2021
g101
g102
ssg83
g2011
sg76
(lp2022
S':'
asbag69
(g90
g71
NtRp2023
(dp2024
g74
(dp2025
sg83
g2011
sg76
(lp2026
g69
(g70
g71
NtRp2027
(dp2028
g74
(dp2029
g82
I4
ssg83
g2023
sg76
(lp2030
S'set([])'
p2031
asbasbasbag69
(g85
g71
NtRp2032
(dp2033
g74
(dp2034
sg83
g1921
sg76
(lp2035
g69
(g90
g71
NtRp2036
(dp2037
g74
(dp2038
g94
g95
ssg83
g2032
sg76
(lp2039
g985
asbag69
(g90
g71
NtRp2040
(dp2041
g74
(dp2042
g101
g102
ssg83
g2032
sg76
(lp2043
S':'
asbag69
(g90
g71
NtRp2044
(dp2045
g74
(dp2046
sg83
g2032
sg76
(lp2047
g69
(g70
g71
NtRp2048
(dp2049
g74
(dp2050
g82
I4
ssg83
g2044
sg76
(lp2051
g112
asbasbasbag69
(g85
g71
NtRp2052
(dp2053
g74
(dp2054
sg83
g1921
sg76
(lp2055
g69
(g90
g71
NtRp2056
(dp2057
g74
(dp2058
g94
g95
ssg83
g2052
sg76
(lp2059
g1006
asbag69
(g90
g71
NtRp2060
(dp2061
g74
(dp2062
g101
g102
ssg83
g2052
sg76
(lp2063
S':'
asbag69
(g90
g71
NtRp2064
(dp2065
g74
(dp2066
sg83
g2052
sg76
(lp2067
g69
(g70
g71
NtRp2068
(dp2069
g74
(dp2070
g82
I4
ssg83
g2064
sg76
(lp2071
g1019
asbasbasbag69
(g85
g71
NtRp2072
(dp2073
g74
(dp2074
sg83
g1921
sg76
(lp2075
g69
(g90
g71
NtRp2076
(dp2077
g74
(dp2078
g94
g95
ssg83
g2072
sg76
(lp2079
g1226
asbag69
(g90
g71
NtRp2080
(dp2081
g74
(dp2082
g101
g102
ssg83
g2072
sg76
(lp2083
S':'
asbag69
(g90
g71
NtRp2084
(dp2085
g74
(dp2086
sg83
g2072
sg76
(lp2087
g69
(g70
g71
NtRp2088
(dp2089
g74
(dp2090
g82
I4
ssg83
g2084
sg76
(lp2091
g112
asbasbasbag69
(g85
g71
NtRp2092
(dp2093
g74
(dp2094
sg83
g1921
sg76
(lp2095
g69
(g90
g71
NtRp2096
(dp2097
g74
(dp2098
g94
g95
ssg83
g2092
sg76
(lp2099
g1247
asbag69
(g90
g71
NtRp2100
(dp2101
g74
(dp2102
g101
g102
ssg83
g2092
sg76
(lp2103
S':'
asbag69
(g90
g71
NtRp2104
(dp2105
g74
(dp2106
sg83
g2092
sg76
(lp2107
g69
(g70
g71
NtRp2108
(dp2109
g74
(dp2110
g82
I4
ssg83
g2104
sg76
(lp2111
g112
asbasbasbag69
(g85
g71
NtRp2112
(dp2113
g74
(dp2114
sg83
g1921
sg76
(lp2115
g69
(g90
g71
NtRp2116
(dp2117
g74
(dp2118
g94
g95
ssg83
g2112
sg76
(lp2119
g1485
asbag69
(g90
g71
NtRp2120
(dp2121
g74
(dp2122
g101
g102
ssg83
g2112
sg76
(lp2123
S':'
asbag69
(g90
g71
NtRp2124
(dp2125
g74
(dp2126
sg83
g2112
sg76
(lp2127
g69
(g70
g71
NtRp2128
(dp2129
g74
(dp2130
g82
I4
ssg83
g2124
sg76
(lp2131
g1498
asbasbasbag69
(g85
g71
NtRp2132
(dp2133
g74
(dp2134
sg83
g1921
sg76
(lp2135
g69
(g90
g71
NtRp2136
(dp2137
g74
(dp2138
g94
g95
ssg83
g2132
sg76
(lp2139
g1528
asbag69
(g90
g71
NtRp2140
(dp2141
g74
(dp2142
g101
g102
ssg83
g2132
sg76
(lp2143
S':'
asbag69
(g90
g71
NtRp2144
(dp2145
g74
(dp2146
sg83
g2132
sg76
(lp2147
g69
(g70
g71
NtRp2148
(dp2149
g74
(dp2150
g82
I4
ssg83
g2144
sg76
(lp2151
g69
(g78
g71
NtRp2152
(dp2153
g74
(dp2154
g82
I3
ssg83
Nsg76
(lp2155
g69
(g85
g71
NtRp2156
(dp2157
g74
(dp2158
sg83
g2152
sg76
(lp2159
g69
(g90
g71
NtRp2160
(dp2161
g74
(dp2162
sg83
g2156
sg76
(lp2163
g69
(g70
g71
NtRp2164
(dp2165
g74
(dp2166
g82
I3
ssg83
g2160
sg76
(lp2167
S'1'
asbasbasbag69
(g85
g71
NtRp2168
(dp2169
g74
(dp2170
sg83
g2152
sg76
(lp2171
g69
(g90
g71
NtRp2172
(dp2173
g74
(dp2174
sg83
g2168
sg76
(lp2175
g69
(g70
g71
NtRp2176
(dp2177
g74
(dp2178
g82
I3
ssg83
g2172
sg76
(lp2179
S'99'
p2180
asbasbasbag69
(g85
g71
NtRp2181
(dp2182
g74
(dp2183
sg83
g2152
sg76
(lp2184
g69
(g90
g71
NtRp2185
(dp2186
g74
(dp2187
sg83
g2181
sg76
(lp2188
g69
(g70
g71
NtRp2189
(dp2190
g74
(dp2191
g82
I3
ssg83
g2185
sg76
(lp2192
S'7'
asbasbasbag69
(g85
g71
NtRp2193
(dp2194
g74
(dp2195
sg83
g2152
sg76
(lp2196
g69
(g90
g71
NtRp2197
(dp2198
g74
(dp2199
sg83
g2193
sg76
(lp2200
g69
(g70
g71
NtRp2201
(dp2202
g74
(dp2203
g82
I3
ssg83
g2197
sg76
(lp2204
S'datetime.datetime(2012, 3, 4, 22, 12, 8)'
p2205
asbasbasbag69
(g85
g71
NtRp2206
(dp2207
g74
(dp2208
sg83
g2152
sg76
(lp2209
g69
(g90
g71
NtRp2210
(dp2211
g74
(dp2212
sg83
g2206
sg76
(lp2213
g69
(g70
g71
NtRp2214
(dp2215
g74
(dp2216
g82
I3
ssg83
g2210
sg76
(lp2217
g1607
asbasbasbasbasbasbasbasbasbasbasbag69
(g85
g71
NtRp2218
(dp2219
g74
(dp2220
sg83
g79
sg76
(lp2221
g69
(g90
g71
NtRp2222
(dp2223
g74
(dp2224
g94
g95
ssg83
g2218
sg76
(lp2225
S'is_https'
p2226
asbag69
(g90
g71
NtRp2227
(dp2228
g74
(dp2229
g101
g102
ssg83
g2218
sg76
(lp2230
S':'
asbag69
(g90
g71
NtRp2231
(dp2232
g74
(dp2233
sg83
g2218
sg76
(lp2234
g69
(g70
g71
NtRp2235
(dp2236
g74
(dp2237
g82
I5
ssg83
g2231
sg76
(lp2238
g112
asbasbasbag69
(g85
g71
NtRp2239
(dp2240
g74
(dp2241
sg83
g79
sg76
(lp2242
g69
(g90
g71
NtRp2243
(dp2244
g74
(dp2245
g94
g95
ssg83
g2239
sg76
(lp2246
S'is_local'
p2247
asbag69
(g90
g71
NtRp2248
(dp2249
g74
(dp2250
g101
g102
ssg83
g2239
sg76
(lp2251
S':'
asbag69
(g90
g71
NtRp2252
(dp2253
g74
(dp2254
sg83
g2239
sg76
(lp2255
g69
(g70
g71
NtRp2256
(dp2257
g74
(dp2258
g82
I5
ssg83
g2252
sg76
(lp2259
g1716
asbasbasbag69
(g85
g71
NtRp2260
(dp2261
g74
(dp2262
sg83
g79
sg76
(lp2263
g69
(g90
g71
NtRp2264
(dp2265
g74
(dp2266
g94
g95
ssg83
g2260
sg76
(lp2267
S'is_restful'
p2268
asbag69
(g90
g71
NtRp2269
(dp2270
g74
(dp2271
g101
g102
ssg83
g2260
sg76
(lp2272
S':'
asbag69
(g90
g71
NtRp2273
(dp2274
g74
(dp2275
sg83
g2260
sg76
(lp2276
g69
(g70
g71
NtRp2277
(dp2278
g74
(dp2279
g82
I5
ssg83
g2273
sg76
(lp2280
g112
asbasbasbag69
(g85
g71
NtRp2281
(dp2282
g74
(dp2283
sg83
g79
sg76
(lp2284
g69
(g90
g71
NtRp2285
(dp2286
g74
(dp2287
g94
g95
ssg83
g2281
sg76
(lp2288
S'now'
p2289
asbag69
(g90
g71
NtRp2290
(dp2291
g74
(dp2292
g101
g102
ssg83
g2281
sg76
(lp2293
S':'
asbag69
(g90
g71
NtRp2294
(dp2295
g74
(dp2296
sg83
g2281
sg76
(lp2297
g69
(g70
g71
NtRp2298
(dp2299
g74
(dp2300
g82
I5
ssg83
g2294
sg76
(lp2301
S'datetime.datetime(2012, 4, 11, 23, 42, 46, 292125)'
p2302
asbasbasbag69
(g85
g71
NtRp2303
(dp2304
g74
(dp2305
sg83
g79
sg76
(lp2306
g69
(g90
g71
NtRp2307
(dp2308
g74
(dp2309
g94
g95
ssg83
g2303
sg76
(lp2310
S'post_vars'
p2311
asbag69
(g90
g71
NtRp2312
(dp2313
g74
(dp2314
g101
g102
ssg83
g2303
sg76
(lp2315
S':'
asbag69
(g90
g71
NtRp2316
(dp2317
g74
(dp2318
sg83
g2303
sg76
(lp2319
g69
(g70
g71
NtRp2320
(dp2321
g74
(dp2322
g82
I5
ssg83
g2316
sg76
(lp2323
g69
(g78
g71
NtRp2324
(dp2325
g74
(dp2326
g82
I4
ssg83
Nsg76
(lp2327
sbasbasbasbag69
(g85
g71
NtRp2328
(dp2329
g74
(dp2330
sg83
g79
sg76
(lp2331
g69
(g90
g71
NtRp2332
(dp2333
g74
(dp2334
g94
g95
ssg83
g2328
sg76
(lp2335
S'raw_args'
p2336
asbag69
(g90
g71
NtRp2337
(dp2338
g74
(dp2339
g101
g102
ssg83
g2328
sg76
(lp2340
S':'
asbag69
(g90
g71
NtRp2341
(dp2342
g74
(dp2343
sg83
g2328
sg76
(lp2344
g69
(g70
g71
NtRp2345
(dp2346
g74
(dp2347
g82
I5
ssg83
g2341
sg76
(lp2348
S'new/personal'
p2349
asbasbasbag69
(g85
g71
NtRp2350
(dp2351
g74
(dp2352
sg83
g79
sg76
(lp2353
g69
(g90
g71
NtRp2354
(dp2355
g74
(dp2356
g94
g95
ssg83
g2350
sg76
(lp2357
S'url'
p2358
asbag69
(g90
g71
NtRp2359
(dp2360
g74
(dp2361
g101
g102
ssg83
g2350
sg76
(lp2362
S':'
asbag69
(g90
g71
NtRp2363
(dp2364
g74
(dp2365
sg83
g2350
sg76
(lp2366
g69
(g70
g71
NtRp2367
(dp2368
g74
(dp2369
g82
I5
ssg83
g2363
sg76
(lp2370
S'/woppi/interno/personal/new/personal'
p2371
asbasbasbag69
(g85
g71
NtRp2372
(dp2373
g74
(dp2374
sg83
g79
sg76
(lp2375
g69
(g90
g71
NtRp2376
(dp2377
g74
(dp2378
g94
g95
ssg83
g2372
sg76
(lp2379
S'utcnow'
p2380
asbag69
(g90
g71
NtRp2381
(dp2382
g74
(dp2383
g101
g102
ssg83
g2372
sg76
(lp2384
S':'
asbag69
(g90
g71
NtRp2385
(dp2386
g74
(dp2387
sg83
g2372
sg76
(lp2388
g69
(g70
g71
NtRp2389
(dp2390
g74
(dp2391
g82
I5
ssg83
g2385
sg76
(lp2392
S'datetime.datetime(2012, 4, 12, 2, 42, 46, 292164)'
p2393
asbasbasbag69
(g85
g71
NtRp2394
(dp2395
g74
(dp2396
sg83
g79
sg76
(lp2397
g69
(g90
g71
NtRp2398
(dp2399
g74
(dp2400
g94
g95
ssg83
g2394
sg76
(lp2401
S'uuid'
p2402
asbag69
(g90
g71
NtRp2403
(dp2404
g74
(dp2405
g101
g102
ssg83
g2394
sg76
(lp2406
S':'
asbag69
(g90
g71
NtRp2407
(dp2408
g74
(dp2409
sg83
g2394
sg76
(lp2410
g69
(g70
g71
NtRp2411
(dp2412
g74
(dp2413
g82
I5
ssg83
g2407
sg76
(lp2414
S'woppi/127.0.0.1.2012-04-11.23-42-46.7b0d3bf4-aaef-47fa-8b3b-c5b31d2295cc'
p2415
asbasbasbag69
(g85
g71
NtRp2416
(dp2417
g74
(dp2418
sg83
g79
sg76
(lp2419
g69
(g90
g71
NtRp2420
(dp2421
g74
(dp2422
g94
g95
ssg83
g2416
sg76
(lp2423
S'vars'
p2424
asbag69
(g90
g71
NtRp2425
(dp2426
g74
(dp2427
g101
g102
ssg83
g2416
sg76
(lp2428
S':'
asbag69
(g90
g71
NtRp2429
(dp2430
g74
(dp2431
sg83
g2416
sg76
(lp2432
g69
(g70
g71
NtRp2433
(dp2434
g74
(dp2435
g82
I5
ssg83
g2429
sg76
(lp2436
g69
(g78
g71
NtRp2437
(dp2438
g74
(dp2439
g82
I4
ssg83
Nsg76
(lp2440
sbasbasbasbag69
(g85
g71
NtRp2441
(dp2442
g74
(dp2443
sg83
g79
sg76
(lp2444
g69
(g90
g71
NtRp2445
(dp2446
g74
(dp2447
g94
g95
ssg83
g2441
sg76
(lp2448
S'wsgi'
p2449
asbag69
(g90
g71
NtRp2450
(dp2451
g74
(dp2452
g101
g102
ssg83
g2441
sg76
(lp2453
S':'
asbag69
(g90
g71
NtRp2454
(dp2455
g74
(dp2456
sg83
g2441
sg76
(lp2457
g69
(g70
g71
NtRp2458
(dp2459
g74
(dp2460
g82
I5
ssg83
g2454
sg76
(lp2461
g69
(g78
g71
NtRp2462
(dp2463
g74
(dp2464
g82
I4
ssg83
Nsg76
(lp2465
g69
(g85
g71
NtRp2466
(dp2467
g74
(dp2468
sg83
g2462
sg76
(lp2469
g69
(g90
g71
NtRp2470
(dp2471
g74
(dp2472
g94
g95
ssg83
g2466
sg76
(lp2473
S'environ'
p2474
asbag69
(g90
g71
NtRp2475
(dp2476
g74
(dp2477
g101
g102
ssg83
g2466
sg76
(lp2478
S':'
asbag69
(g90
g71
NtRp2479
(dp2480
g74
(dp2481
sg83
g2466
sg76
(lp2482
g69
(g70
g71
NtRp2483
(dp2484
g74
(dp2485
g82
I4
ssg83
g2479
sg76
(lp2486
g69
(g78
g71
NtRp2487
(dp2488
g74
(dp2489
g82
I3
ssg83
Nsg76
(lp2490
g69
(g85
g71
NtRp2491
(dp2492
g74
(dp2493
sg83
g2487
sg76
(lp2494
g69
(g90
g71
NtRp2495
(dp2496
g74
(dp2497
g94
g95
ssg83
g2491
sg76
(lp2498
S'HTTP_ACCEPT'
p2499
asbag69
(g90
g71
NtRp2500
(dp2501
g74
(dp2502
g101
g102
ssg83
g2491
sg76
(lp2503
S':'
asbag69
(g90
g71
NtRp2504
(dp2505
g74
(dp2506
sg83
g2491
sg76
(lp2507
g69
(g70
g71
NtRp2508
(dp2509
g74
(dp2510
g82
I3
ssg83
g2504
sg76
(lp2511
g1041
asbasbasbag69
(g85
g71
NtRp2512
(dp2513
g74
(dp2514
sg83
g2487
sg76
(lp2515
g69
(g90
g71
NtRp2516
(dp2517
g74
(dp2518
g94
g95
ssg83
g2512
sg76
(lp2519
S'HTTP_ACCEPT_ENCODING'
p2520
asbag69
(g90
g71
NtRp2521
(dp2522
g74
(dp2523
g101
g102
ssg83
g2512
sg76
(lp2524
S':'
asbag69
(g90
g71
NtRp2525
(dp2526
g74
(dp2527
sg83
g2512
sg76
(lp2528
g69
(g70
g71
NtRp2529
(dp2530
g74
(dp2531
g82
I3
ssg83
g2525
sg76
(lp2532
g1063
asbasbasbag69
(g85
g71
NtRp2533
(dp2534
g74
(dp2535
sg83
g2487
sg76
(lp2536
g69
(g90
g71
NtRp2537
(dp2538
g74
(dp2539
g94
g95
ssg83
g2533
sg76
(lp2540
S'HTTP_ACCEPT_LANGUAGE'
p2541
asbag69
(g90
g71
NtRp2542
(dp2543
g74
(dp2544
g101
g102
ssg83
g2533
sg76
(lp2545
S':'
asbag69
(g90
g71
NtRp2546
(dp2547
g74
(dp2548
sg83
g2533
sg76
(lp2549
g69
(g70
g71
NtRp2550
(dp2551
g74
(dp2552
g82
I3
ssg83
g2546
sg76
(lp2553
g1085
asbasbasbag69
(g85
g71
NtRp2554
(dp2555
g74
(dp2556
sg83
g2487
sg76
(lp2557
g69
(g90
g71
NtRp2558
(dp2559
g74
(dp2560
g94
g95
ssg83
g2554
sg76
(lp2561
S'HTTP_CACHE_CONTROL'
p2562
asbag69
(g90
g71
NtRp2563
(dp2564
g74
(dp2565
g101
g102
ssg83
g2554
sg76
(lp2566
S':'
asbag69
(g90
g71
NtRp2567
(dp2568
g74
(dp2569
sg83
g2554
sg76
(lp2570
g69
(g70
g71
NtRp2571
(dp2572
g74
(dp2573
g82
I3
ssg83
g2567
sg76
(lp2574
g1107
asbasbasbag69
(g85
g71
NtRp2575
(dp2576
g74
(dp2577
sg83
g2487
sg76
(lp2578
g69
(g90
g71
NtRp2579
(dp2580
g74
(dp2581
g94
g95
ssg83
g2575
sg76
(lp2582
S'HTTP_CONNECTION'
p2583
asbag69
(g90
g71
NtRp2584
(dp2585
g74
(dp2586
g101
g102
ssg83
g2575
sg76
(lp2587
S':'
asbag69
(g90
g71
NtRp2588
(dp2589
g74
(dp2590
sg83
g2575
sg76
(lp2591
g69
(g70
g71
NtRp2592
(dp2593
g74
(dp2594
g82
I3
ssg83
g2588
sg76
(lp2595
g1129
asbasbasbag69
(g85
g71
NtRp2596
(dp2597
g74
(dp2598
sg83
g2487
sg76
(lp2599
g69
(g90
g71
NtRp2600
(dp2601
g74
(dp2602
g94
g95
ssg83
g2596
sg76
(lp2603
S'HTTP_COOKIE'
p2604
asbag69
(g90
g71
NtRp2605
(dp2606
g74
(dp2607
g101
g102
ssg83
g2596
sg76
(lp2608
S':'
asbag69
(g90
g71
NtRp2609
(dp2610
g74
(dp2611
sg83
g2596
sg76
(lp2612
g69
(g70
g71
NtRp2613
(dp2614
g74
(dp2615
g82
I3
ssg83
g2609
sg76
(lp2616
g1151
asbasbasbag69
(g85
g71
NtRp2617
(dp2618
g74
(dp2619
sg83
g2487
sg76
(lp2620
g69
(g90
g71
NtRp2621
(dp2622
g74
(dp2623
g94
g95
ssg83
g2617
sg76
(lp2624
S'HTTP_HOST'
p2625
asbag69
(g90
g71
NtRp2626
(dp2627
g74
(dp2628
g101
g102
ssg83
g2617
sg76
(lp2629
S':'
asbag69
(g90
g71
NtRp2630
(dp2631
g74
(dp2632
sg83
g2617
sg76
(lp2633
g69
(g70
g71
NtRp2634
(dp2635
g74
(dp2636
g82
I3
ssg83
g2630
sg76
(lp2637
g1173
asbasbasbag69
(g85
g71
NtRp2638
(dp2639
g74
(dp2640
sg83
g2487
sg76
(lp2641
g69
(g90
g71
NtRp2642
(dp2643
g74
(dp2644
g94
g95
ssg83
g2638
sg76
(lp2645
S'HTTP_REFERER'
p2646
asbag69
(g90
g71
NtRp2647
(dp2648
g74
(dp2649
g101
g102
ssg83
g2638
sg76
(lp2650
S':'
asbag69
(g90
g71
NtRp2651
(dp2652
g74
(dp2653
sg83
g2638
sg76
(lp2654
g69
(g70
g71
NtRp2655
(dp2656
g74
(dp2657
g82
I3
ssg83
g2651
sg76
(lp2658
g1195
asbasbasbag69
(g85
g71
NtRp2659
(dp2660
g74
(dp2661
sg83
g2487
sg76
(lp2662
g69
(g90
g71
NtRp2663
(dp2664
g74
(dp2665
g94
g95
ssg83
g2659
sg76
(lp2666
S'HTTP_USER_AGENT'
p2667
asbag69
(g90
g71
NtRp2668
(dp2669
g74
(dp2670
g101
g102
ssg83
g2659
sg76
(lp2671
S':'
asbag69
(g90
g71
NtRp2672
(dp2673
g74
(dp2674
sg83
g2659
sg76
(lp2675
g69
(g70
g71
NtRp2676
(dp2677
g74
(dp2678
g82
I3
ssg83
g2672
sg76
(lp2679
g1217
asbasbasbag69
(g85
g71
NtRp2680
(dp2681
g74
(dp2682
sg83
g2487
sg76
(lp2683
g69
(g90
g71
NtRp2684
(dp2685
g74
(dp2686
g94
g95
ssg83
g2680
sg76
(lp2687
S'PATH_INFO'
p2688
asbag69
(g90
g71
NtRp2689
(dp2690
g74
(dp2691
g101
g102
ssg83
g2680
sg76
(lp2692
S':'
asbag69
(g90
g71
NtRp2693
(dp2694
g74
(dp2695
sg83
g2680
sg76
(lp2696
g69
(g70
g71
NtRp2697
(dp2698
g74
(dp2699
g82
I3
ssg83
g2693
sg76
(lp2700
g1281
asbasbasbag69
(g85
g71
NtRp2701
(dp2702
g74
(dp2703
sg83
g2487
sg76
(lp2704
g69
(g90
g71
NtRp2705
(dp2706
g74
(dp2707
g94
g95
ssg83
g2701
sg76
(lp2708
S'QUERY_STRING'
p2709
asbag69
(g90
g71
NtRp2710
(dp2711
g74
(dp2712
g101
g102
ssg83
g2701
sg76
(lp2713
S':'
asbag69
(g90
g71
NtRp2714
(dp2715
g74
(dp2716
sg83
g2701
sg76
(lp2717
g69
(g70
g71
NtRp2718
(dp2719
g74
(dp2720
g82
I3
ssg83
g2714
sg76
(lp2721
S''
asbasbasbag69
(g85
g71
NtRp2722
(dp2723
g74
(dp2724
sg83
g2487
sg76
(lp2725
g69
(g90
g71
NtRp2726
(dp2727
g74
(dp2728
g94
g95
ssg83
g2722
sg76
(lp2729
S'REMOTE_ADDR'
p2730
asbag69
(g90
g71
NtRp2731
(dp2732
g74
(dp2733
g101
g102
ssg83
g2722
sg76
(lp2734
S':'
asbag69
(g90
g71
NtRp2735
(dp2736
g74
(dp2737
sg83
g2722
sg76
(lp2738
g69
(g70
g71
NtRp2739
(dp2740
g74
(dp2741
g82
I3
ssg83
g2735
sg76
(lp2742
g228
asbasbasbag69
(g85
g71
NtRp2743
(dp2744
g74
(dp2745
sg83
g2487
sg76
(lp2746
g69
(g90
g71
NtRp2747
(dp2748
g74
(dp2749
g94
g95
ssg83
g2743
sg76
(lp2750
S'REMOTE_PORT'
p2751
asbag69
(g90
g71
NtRp2752
(dp2753
g74
(dp2754
g101
g102
ssg83
g2743
sg76
(lp2755
S':'
asbag69
(g90
g71
NtRp2756
(dp2757
g74
(dp2758
sg83
g2743
sg76
(lp2759
g69
(g70
g71
NtRp2760
(dp2761
g74
(dp2762
g82
I3
ssg83
g2756
sg76
(lp2763
g1345
asbasbasbag69
(g85
g71
NtRp2764
(dp2765
g74
(dp2766
sg83
g2487
sg76
(lp2767
g69
(g90
g71
NtRp2768
(dp2769
g74
(dp2770
g94
g95
ssg83
g2764
sg76
(lp2771
S'REQUEST_METHOD'
p2772
asbag69
(g90
g71
NtRp2773
(dp2774
g74
(dp2775
g101
g102
ssg83
g2764
sg76
(lp2776
S':'
asbag69
(g90
g71
NtRp2777
(dp2778
g74
(dp2779
sg83
g2764
sg76
(lp2780
g69
(g70
g71
NtRp2781
(dp2782
g74
(dp2783
g82
I3
ssg83
g2777
sg76
(lp2784
g1367
asbasbasbag69
(g85
g71
NtRp2785
(dp2786
g74
(dp2787
sg83
g2487
sg76
(lp2788
g69
(g90
g71
NtRp2789
(dp2790
g74
(dp2791
g94
g95
ssg83
g2785
sg76
(lp2792
S'SCRIPT_NAME'
p2793
asbag69
(g90
g71
NtRp2794
(dp2795
g74
(dp2796
g101
g102
ssg83
g2785
sg76
(lp2797
S':'
asbag69
(g90
g71
NtRp2798
(dp2799
g74
(dp2800
sg83
g2785
sg76
(lp2801
g69
(g70
g71
NtRp2802
(dp2803
g74
(dp2804
g82
I3
ssg83
g2798
sg76
(lp2805
S''
asbasbasbag69
(g85
g71
NtRp2806
(dp2807
g74
(dp2808
sg83
g2487
sg76
(lp2809
g69
(g90
g71
NtRp2810
(dp2811
g74
(dp2812
g94
g95
ssg83
g2806
sg76
(lp2813
S'SERVER_NAME'
p2814
asbag69
(g90
g71
NtRp2815
(dp2816
g74
(dp2817
g101
g102
ssg83
g2806
sg76
(lp2818
S':'
asbag69
(g90
g71
NtRp2819
(dp2820
g74
(dp2821
sg83
g2806
sg76
(lp2822
g69
(g70
g71
NtRp2823
(dp2824
g74
(dp2825
g82
I3
ssg83
g2819
sg76
(lp2826
g1410
asbasbasbag69
(g85
g71
NtRp2827
(dp2828
g74
(dp2829
sg83
g2487
sg76
(lp2830
g69
(g90
g71
NtRp2831
(dp2832
g74
(dp2833
g94
g95
ssg83
g2827
sg76
(lp2834
S'SERVER_PORT'
p2835
asbag69
(g90
g71
NtRp2836
(dp2837
g74
(dp2838
g101
g102
ssg83
g2827
sg76
(lp2839
S':'
asbag69
(g90
g71
NtRp2840
(dp2841
g74
(dp2842
sg83
g2827
sg76
(lp2843
g69
(g70
g71
NtRp2844
(dp2845
g74
(dp2846
g82
I3
ssg83
g2840
sg76
(lp2847
g1432
asbasbasbag69
(g85
g71
NtRp2848
(dp2849
g74
(dp2850
sg83
g2487
sg76
(lp2851
g69
(g90
g71
NtRp2852
(dp2853
g74
(dp2854
g94
g95
ssg83
g2848
sg76
(lp2855
S'SERVER_PROTOCOL'
p2856
asbag69
(g90
g71
NtRp2857
(dp2858
g74
(dp2859
g101
g102
ssg83
g2848
sg76
(lp2860
S':'
asbag69
(g90
g71
NtRp2861
(dp2862
g74
(dp2863
sg83
g2848
sg76
(lp2864
g69
(g70
g71
NtRp2865
(dp2866
g74
(dp2867
g82
I3
ssg83
g2861
sg76
(lp2868
g1454
asbasbasbag69
(g85
g71
NtRp2869
(dp2870
g74
(dp2871
sg83
g2487
sg76
(lp2872
g69
(g90
g71
NtRp2873
(dp2874
g74
(dp2875
g94
g95
ssg83
g2869
sg76
(lp2876
S'SERVER_SOFTWARE'
p2877
asbag69
(g90
g71
NtRp2878
(dp2879
g74
(dp2880
g101
g102
ssg83
g2869
sg76
(lp2881
S':'
asbag69
(g90
g71
NtRp2882
(dp2883
g74
(dp2884
sg83
g2869
sg76
(lp2885
g69
(g70
g71
NtRp2886
(dp2887
g74
(dp2888
g82
I3
ssg83
g2882
sg76
(lp2889
g1476
asbasbasbag69
(g85
g71
NtRp2890
(dp2891
g74
(dp2892
sg83
g2487
sg76
(lp2893
g69
(g90
g71
NtRp2894
(dp2895
g74
(dp2896
g94
g95
ssg83
g2890
sg76
(lp2897
S'wsgi.errors'
p2898
asbag69
(g90
g71
NtRp2899
(dp2900
g74
(dp2901
g101
g102
ssg83
g2890
sg76
(lp2902
S':'
asbag69
(g90
g71
NtRp2903
(dp2904
g74
(dp2905
sg83
g2890
sg76
(lp2906
g69
(g70
g71
NtRp2907
(dp2908
g74
(dp2909
g82
I3
ssg83
g2903
sg76
(lp2910
S"<open file '<stderr>', mode 'w' at 0x7fbda4e96270>"
p2911
asbasbasbag69
(g85
g71
NtRp2912
(dp2913
g74
(dp2914
sg83
g2487
sg76
(lp2915
g69
(g90
g71
NtRp2916
(dp2917
g74
(dp2918
g94
g95
ssg83
g2912
sg76
(lp2919
S'wsgi.file_wrapper'
p2920
asbag69
(g90
g71
NtRp2921
(dp2922
g74
(dp2923
g101
g102
ssg83
g2912
sg76
(lp2924
S':'
asbag69
(g90
g71
NtRp2925
(dp2926
g74
(dp2927
sg83
g2912
sg76
(lp2928
g69
(g70
g71
NtRp2929
(dp2930
g74
(dp2931
g82
I3
ssg83
g2925
sg76
(lp2932
S'<class wsgiref.util.FileWrapper at 0x18fe0b8>'
p2933
asbasbasbag69
(g85
g71
NtRp2934
(dp2935
g74
(dp2936
sg83
g2487
sg76
(lp2937
g69
(g90
g71
NtRp2938
(dp2939
g74
(dp2940
g94
g95
ssg83
g2934
sg76
(lp2941
S'wsgi.input'
p2942
asbag69
(g90
g71
NtRp2943
(dp2944
g74
(dp2945
g101
g102
ssg83
g2934
sg76
(lp2946
S':'
asbag69
(g90
g71
NtRp2947
(dp2948
g74
(dp2949
sg83
g2934
sg76
(lp2950
g69
(g70
g71
NtRp2951
(dp2952
g74
(dp2953
g82
I3
ssg83
g2947
sg76
(lp2954
S'<cStringIO.StringO object at 0x23dd378>'
p2955
asbasbasbag69
(g85
g71
NtRp2956
(dp2957
g74
(dp2958
sg83
g2487
sg76
(lp2959
g69
(g90
g71
NtRp2960
(dp2961
g74
(dp2962
g94
g95
ssg83
g2956
sg76
(lp2963
S'wsgi.multiprocess'
p2964
asbag69
(g90
g71
NtRp2965
(dp2966
g74
(dp2967
g101
g102
ssg83
g2956
sg76
(lp2968
S':'
asbag69
(g90
g71
NtRp2969
(dp2970
g74
(dp2971
sg83
g2956
sg76
(lp2972
g69
(g70
g71
NtRp2973
(dp2974
g74
(dp2975
g82
I3
ssg83
g2969
sg76
(lp2976
g112
asbasbasbag69
(g85
g71
NtRp2977
(dp2978
g74
(dp2979
sg83
g2487
sg76
(lp2980
g69
(g90
g71
NtRp2981
(dp2982
g74
(dp2983
g94
g95
ssg83
g2977
sg76
(lp2984
S'wsgi.multithread'
p2985
asbag69
(g90
g71
NtRp2986
(dp2987
g74
(dp2988
g101
g102
ssg83
g2977
sg76
(lp2989
S':'
asbag69
(g90
g71
NtRp2990
(dp2991
g74
(dp2992
sg83
g2977
sg76
(lp2993
g69
(g70
g71
NtRp2994
(dp2995
g74
(dp2996
g82
I3
ssg83
g2990
sg76
(lp2997
g1716
asbasbasbag69
(g85
g71
NtRp2998
(dp2999
g74
(dp3000
sg83
g2487
sg76
(lp3001
g69
(g90
g71
NtRp3002
(dp3003
g74
(dp3004
g94
g95
ssg83
g2998
sg76
(lp3005
S'wsgi.run_once'
p3006
asbag69
(g90
g71
NtRp3007
(dp3008
g74
(dp3009
g101
g102
ssg83
g2998
sg76
(lp3010
S':'
asbag69
(g90
g71
NtRp3011
(dp3012
g74
(dp3013
sg83
g2998
sg76
(lp3014
g69
(g70
g71
NtRp3015
(dp3016
g74
(dp3017
g82
I3
ssg83
g3011
sg76
(lp3018
g112
asbasbasbag69
(g85
g71
NtRp3019
(dp3020
g74
(dp3021
sg83
g2487
sg76
(lp3022
g69
(g90
g71
NtRp3023
(dp3024
g74
(dp3025
g94
g95
ssg83
g3019
sg76
(lp3026
S'wsgi.url_scheme'
p3027
asbag69
(g90
g71
NtRp3028
(dp3029
g74
(dp3030
g101
g102
ssg83
g3019
sg76
(lp3031
S':'
asbag69
(g90
g71
NtRp3032
(dp3033
g74
(dp3034
sg83
g3019
sg76
(lp3035
g69
(g70
g71
NtRp3036
(dp3037
g74
(dp3038
g82
I3
ssg83
g3032
sg76
(lp3039
g1759
asbasbasbag69
(g85
g71
NtRp3040
(dp3041
g74
(dp3042
sg83
g2487
sg76
(lp3043
g69
(g90
g71
NtRp3044
(dp3045
g74
(dp3046
g94
g95
ssg83
g3040
sg76
(lp3047
S'wsgi.version'
p3048
asbag69
(g90
g71
NtRp3049
(dp3050
g74
(dp3051
g101
g102
ssg83
g3040
sg76
(lp3052
S':'
asbag69
(g90
g71
NtRp3053
(dp3054
g74
(dp3055
sg83
g3040
sg76
(lp3056
g69
(g70
g71
NtRp3057
(dp3058
g74
(dp3059
g82
I3
ssg83
g3053
sg76
(lp3060
S'1'
asbasbasbasbasbasbasbasbasbasbasbasbasbsS'frames'
p3061
(lp3062
(dp3063
S'file'
p3064
S'/home/marco/projects/final/web2py/gluon/restricted.py'
p3065
sS'dump'
p3066
(dp3067
S'code'
p3068
S'"# -*- coding: utf-8 -*-\\n\\ndb.define_table(\'especi...ormat = \'%(id)s - %(apellido)s %(nombre)s\'\\n    )\\n"'
p3069
sS'layer'
p3070
S"'/home/marco/projects/final/web2py/applications/woppi/models/db_interno.py'"
p3071
sS'global compile2'
p3072
S'<function compile2>'
p3073
sS'ccode'
p3074
S'undefined'
p3075
ssS'lnum'
p3076
I204
sS'lines'
p3077
(dp3078
I199
S"    environment['__name__'] = '__restricted__'"
p3079
sI200
S'    try:'
p3080
sI201
S'        if type(code) == types.CodeType:'
p3081
sI202
S'            ccode = code'
p3082
sI203
S'        else:'
p3083
sI204
S'            ccode = compile2(code,layer)'
p3084
sI205
S'        exec ccode in environment'
p3085
sI206
S'    except HTTP:'
p3086
sI207
S'        raise'
p3087
sI208
S'    except RestrictedError:'
p3088
ssS'call'
p3089
S'(code="# -*- coding: utf-8 -*-\\n\\ndb.define_table(\'especi...ormat = \'%(id)s - %(apellido)s %(nombre)s\'\\n    )\\n", environment={\'A\': <class \'gluon.html.A\'>, \'Auth\': <class \'gluon.tools.Auth\'>, \'B\': <class \'gluon.html.B\'>, \'BEAUTIFY\': <class \'gluon.html.BEAUTIFY\'>, \'BODY\': <class \'gluon.html.BODY\'>, \'BR\': <class \'gluon.html.BR\'>, \'BUTTON\': <class \'gluon.html.BUTTON\'>, \'CAT\': <class \'gluon.html.CAT\'>, \'CENTER\': <class \'gluon.html.CENTER\'>, \'CLEANUP\': <class \'gluon.validators.CLEANUP\'>, ...}, layer=\'/home/marco/projects/final/web2py/applications/woppi/models/db_interno.py\')'
p3090
sS'func'
p3091
S'restricted'
p3092
sa(dp3093
g3064
S'/home/marco/projects/final/web2py/gluon/restricted.py'
p3094
sg3066
(dp3095
S'builtincompile'
p3096
S'<built-in function compile>'
p3097
sS'code'
p3098
S'"# -*- coding: utf-8 -*-\\n\\ndb.define_table(\'especi...ormat = \'%(id)s - %(apellido)s %(nombre)s\'\\n    )\\n"'
p3099
sS'code.rstrip'
p3100
S'<built-in method rstrip of str object>'
p3101
sS').replace'
p3102
g3075
sS'layer'
p3103
S"'/home/marco/projects/final/web2py/applications/woppi/models/db_interno.py'"
p3104
ssg3076
I189
sg3077
(dp3105
I192
S'    """'
p3106
sI193
S'    runs code in environment and returns the output. if an exception occurs'
p3107
sI184
S''
sI185
S'def compile2(code,layer):'
p3108
sI186
S'    """'
p3109
sI187
S"    The +'\\n' is necessary else compile fails when code ends in a comment."
p3110
sI188
S'    """'
p3111
sI189
S"    return compile(code.rstrip().replace('\\r\\n','\\n')+'\\n', layer, 'exec')"
p3112
sI190
S''
sI191
S"def restricted(code, environment=None, layer='Unknown'):"
p3113
ssg3089
S'(code="# -*- coding: utf-8 -*-\\n\\ndb.define_table(\'especi...ormat = \'%(id)s - %(apellido)s %(nombre)s\'\\n    )\\n", layer=\'/home/marco/projects/final/web2py/applications/woppi/models/db_interno.py\')'
p3114
sg3091
S'compile2'
p3115
sasS'pyver'
p3116
S'Python 2.7.3rc2: /usr/bin/python'
p3117
sS'session'
p3118
g69
(g70
g71
NtRp3119
(dp3120
g74
(dp3121
sg76
(lp3122
g69
(g78
g71
NtRp3123
(dp3124
g74
(dp3125
g82
I5
ssg83
Nsg76
(lp3126
sbasbsS'etype'
p3127
S"<type 'exceptions.SyntaxError'>"
p3128
sS'date'
p3129
S'Wed Apr 11 23:42:46 2012'
p3130
sS'response'
p3131
g69
(g70
g71
NtRp3132
(dp3133
g74
(dp3134
sg76
(lp3135
g69
(g78
g71
NtRp3136
(dp3137
g74
(dp3138
g82
I5
ssg83
Nsg76
(lp3139
g69
(g85
g71
NtRp3140
(dp3141
g74
(dp3142
sg83
g3136
sg76
(lp3143
g69
(g90
g71
NtRp3144
(dp3145
g74
(dp3146
g94
g95
ssg83
g3140
sg76
(lp3147
g193
asbag69
(g90
g71
NtRp3148
(dp3149
g74
(dp3150
g101
g102
ssg83
g3140
sg76
(lp3151
S':'
asbag69
(g90
g71
NtRp3152
(dp3153
g74
(dp3154
sg83
g3140
sg76
(lp3155
g69
(g70
g71
NtRp3156
(dp3157
g74
(dp3158
g82
I5
ssg83
g3152
sg76
(lp3159
S'<cStringIO.StringO object at 0x25a55a8>'
p3160
asbasbasbag69
(g85
g71
NtRp3161
(dp3162
g74
(dp3163
sg83
g3136
sg76
(lp3164
g69
(g90
g71
NtRp3165
(dp3166
g74
(dp3167
g94
g95
ssg83
g3161
sg76
(lp3168
g259
asbag69
(g90
g71
NtRp3169
(dp3170
g74
(dp3171
g101
g102
ssg83
g3161
sg76
(lp3172
S':'
asbag69
(g90
g71
NtRp3173
(dp3174
g74
(dp3175
sg83
g3161
sg76
(lp3176
g69
(g70
g71
NtRp3177
(dp3178
g74
(dp3179
g82
I5
ssg83
g3173
sg76
(lp3180
g69
(g78
g71
NtRp3181
(dp3182
g74
(dp3183
g82
I4
ssg83
Nsg76
(lp3184
g69
(g85
g71
NtRp3185
(dp3186
g74
(dp3187
sg83
g3181
sg76
(lp3188
g69
(g90
g71
NtRp3189
(dp3190
g74
(dp3191
g94
g95
ssg83
g3185
sg76
(lp3192
S'session_id_woppi'
p3193
asbag69
(g90
g71
NtRp3194
(dp3195
g74
(dp3196
g101
g102
ssg83
g3185
sg76
(lp3197
S':'
asbag69
(g90
g71
NtRp3198
(dp3199
g74
(dp3200
sg83
g3185
sg76
(lp3201
g69
(g70
g71
NtRp3202
(dp3203
g74
(dp3204
g82
I4
ssg83
g3198
sg76
(lp3205
g69
(g78
g71
NtRp3206
(dp3207
g74
(dp3208
g82
I3
ssg83
Nsg76
(lp3209
g69
(g85
g71
NtRp3210
(dp3211
g74
(dp3212
sg83
g3206
sg76
(lp3213
g69
(g90
g71
NtRp3214
(dp3215
g74
(dp3216
g94
g95
ssg83
g3210
sg76
(lp3217
g309
asbag69
(g90
g71
NtRp3218
(dp3219
g74
(dp3220
g101
g102
ssg83
g3210
sg76
(lp3221
S':'
asbag69
(g90
g71
NtRp3222
(dp3223
g74
(dp3224
sg83
g3210
sg76
(lp3225
g69
(g70
g71
NtRp3226
(dp3227
g74
(dp3228
g82
I3
ssg83
g3222
sg76
(lp3229
S''
asbasbasbag69
(g85
g71
NtRp3230
(dp3231
g74
(dp3232
sg83
g3206
sg76
(lp3233
g69
(g90
g71
NtRp3234
(dp3235
g74
(dp3236
g94
g95
ssg83
g3230
sg76
(lp3237
g330
asbag69
(g90
g71
NtRp3238
(dp3239
g74
(dp3240
g101
g102
ssg83
g3230
sg76
(lp3241
S':'
asbag69
(g90
g71
NtRp3242
(dp3243
g74
(dp3244
sg83
g3230
sg76
(lp3245
g69
(g70
g71
NtRp3246
(dp3247
g74
(dp3248
g82
I3
ssg83
g3242
sg76
(lp3249
S''
asbasbasbag69
(g85
g71
NtRp3250
(dp3251
g74
(dp3252
sg83
g3206
sg76
(lp3253
g69
(g90
g71
NtRp3254
(dp3255
g74
(dp3256
g94
g95
ssg83
g3250
sg76
(lp3257
g351
asbag69
(g90
g71
NtRp3258
(dp3259
g74
(dp3260
g101
g102
ssg83
g3250
sg76
(lp3261
S':'
asbag69
(g90
g71
NtRp3262
(dp3263
g74
(dp3264
sg83
g3250
sg76
(lp3265
g69
(g70
g71
NtRp3266
(dp3267
g74
(dp3268
g82
I3
ssg83
g3262
sg76
(lp3269
S''
asbasbasbag69
(g85
g71
NtRp3270
(dp3271
g74
(dp3272
sg83
g3206
sg76
(lp3273
g69
(g90
g71
NtRp3274
(dp3275
g74
(dp3276
g94
g95
ssg83
g3270
sg76
(lp3277
g372
asbag69
(g90
g71
NtRp3278
(dp3279
g74
(dp3280
g101
g102
ssg83
g3270
sg76
(lp3281
S':'
asbag69
(g90
g71
NtRp3282
(dp3283
g74
(dp3284
sg83
g3270
sg76
(lp3285
g69
(g70
g71
NtRp3286
(dp3287
g74
(dp3288
g82
I3
ssg83
g3282
sg76
(lp3289
S''
asbasbasbag69
(g85
g71
NtRp3290
(dp3291
g74
(dp3292
sg83
g3206
sg76
(lp3293
g69
(g90
g71
NtRp3294
(dp3295
g74
(dp3296
g94
g95
ssg83
g3290
sg76
(lp3297
g393
asbag69
(g90
g71
NtRp3298
(dp3299
g74
(dp3300
g101
g102
ssg83
g3290
sg76
(lp3301
S':'
asbag69
(g90
g71
NtRp3302
(dp3303
g74
(dp3304
sg83
g3290
sg76
(lp3305
g69
(g70
g71
NtRp3306
(dp3307
g74
(dp3308
g82
I3
ssg83
g3302
sg76
(lp3309
S''
asbasbasbag69
(g85
g71
NtRp3310
(dp3311
g74
(dp3312
sg83
g3206
sg76
(lp3313
g69
(g90
g71
NtRp3314
(dp3315
g74
(dp3316
g94
g95
ssg83
g3310
sg76
(lp3317
g414
asbag69
(g90
g71
NtRp3318
(dp3319
g74
(dp3320
g101
g102
ssg83
g3310
sg76
(lp3321
S':'
asbag69
(g90
g71
NtRp3322
(dp3323
g74
(dp3324
sg83
g3310
sg76
(lp3325
g69
(g70
g71
NtRp3326
(dp3327
g74
(dp3328
g82
I3
ssg83
g3322
sg76
(lp3329
S'/'
asbasbasbag69
(g85
g71
NtRp3330
(dp3331
g74
(dp3332
sg83
g3206
sg76
(lp3333
g69
(g90
g71
NtRp3334
(dp3335
g74
(dp3336
g94
g95
ssg83
g3330
sg76
(lp3337
g435
asbag69
(g90
g71
NtRp3338
(dp3339
g74
(dp3340
g101
g102
ssg83
g3330
sg76
(lp3341
S':'
asbag69
(g90
g71
NtRp3342
(dp3343
g74
(dp3344
sg83
g3330
sg76
(lp3345
g69
(g70
g71
NtRp3346
(dp3347
g74
(dp3348
g82
I3
ssg83
g3342
sg76
(lp3349
S''
asbasbasbag69
(g85
g71
NtRp3350
(dp3351
g74
(dp3352
sg83
g3206
sg76
(lp3353
g69
(g90
g71
NtRp3354
(dp3355
g74
(dp3356
g94
g95
ssg83
g3350
sg76
(lp3357
g456
asbag69
(g90
g71
NtRp3358
(dp3359
g74
(dp3360
g101
g102
ssg83
g3350
sg76
(lp3361
S':'
asbag69
(g90
g71
NtRp3362
(dp3363
g74
(dp3364
sg83
g3350
sg76
(lp3365
g69
(g70
g71
NtRp3366
(dp3367
g74
(dp3368
g82
I3
ssg83
g3362
sg76
(lp3369
S''
asbasbasbasbasbasbasbasbasbasbasbag69
(g85
g71
NtRp3370
(dp3371
g74
(dp3372
sg83
g3136
sg76
(lp3373
g69
(g90
g71
NtRp3374
(dp3375
g74
(dp3376
g94
g95
ssg83
g3370
sg76
(lp3377
S'delimiters'
p3378
asbag69
(g90
g71
NtRp3379
(dp3380
g74
(dp3381
g101
g102
ssg83
g3370
sg76
(lp3382
S':'
asbag69
(g90
g71
NtRp3383
(dp3384
g74
(dp3385
sg83
g3370
sg76
(lp3386
g69
(g70
g71
NtRp3387
(dp3388
g74
(dp3389
g82
I5
ssg83
g3383
sg76
(lp3390
g69
(g78
g71
NtRp3391
(dp3392
g74
(dp3393
g82
I4
ssg83
Nsg76
(lp3394
g69
(g85
g71
NtRp3395
(dp3396
g74
(dp3397
sg83
g3391
sg76
(lp3398
g69
(g90
g71
NtRp3399
(dp3400
g74
(dp3401
sg83
g3395
sg76
(lp3402
g69
(g70
g71
NtRp3403
(dp3404
g74
(dp3405
g82
I4
ssg83
g3399
sg76
(lp3406
S'{{'
p3407
asbasbasbag69
(g85
g71
NtRp3408
(dp3409
g74
(dp3410
sg83
g3391
sg76
(lp3411
g69
(g90
g71
NtRp3412
(dp3413
g74
(dp3414
sg83
g3408
sg76
(lp3415
g69
(g70
g71
NtRp3416
(dp3417
g74
(dp3418
g82
I4
ssg83
g3412
sg76
(lp3419
S'}}'
p3420
asbasbasbasbasbasbasbag69
(g85
g71
NtRp3421
(dp3422
g74
(dp3423
sg83
g3136
sg76
(lp3424
g69
(g90
g71
NtRp3425
(dp3426
g74
(dp3427
g94
g95
ssg83
g3421
sg76
(lp3428
S'files'
p3429
asbag69
(g90
g71
NtRp3430
(dp3431
g74
(dp3432
g101
g102
ssg83
g3421
sg76
(lp3433
S':'
asbag69
(g90
g71
NtRp3434
(dp3435
g74
(dp3436
sg83
g3421
sg76
(lp3437
g69
(g70
g71
NtRp3438
(dp3439
g74
(dp3440
g82
I5
ssg83
g3434
sg76
(lp3441
g69
(g78
g71
NtRp3442
(dp3443
g74
(dp3444
g82
I4
ssg83
Nsg76
(lp3445
sbasbasbasbag69
(g85
g71
NtRp3446
(dp3447
g74
(dp3448
sg83
g3136
sg76
(lp3449
g69
(g90
g71
NtRp3450
(dp3451
g74
(dp3452
g94
g95
ssg83
g3446
sg76
(lp3453
S'flash'
p3454
asbag69
(g90
g71
NtRp3455
(dp3456
g74
(dp3457
g101
g102
ssg83
g3446
sg76
(lp3458
S':'
asbag69
(g90
g71
NtRp3459
(dp3460
g74
(dp3461
sg83
g3446
sg76
(lp3462
g69
(g70
g71
NtRp3463
(dp3464
g74
(dp3465
g82
I5
ssg83
g3459
sg76
(lp3466
S''
asbasbasbag69
(g85
g71
NtRp3467
(dp3468
g74
(dp3469
sg83
g3136
sg76
(lp3470
g69
(g90
g71
NtRp3471
(dp3472
g74
(dp3473
g94
g95
ssg83
g3467
sg76
(lp3474
S'generic_patterns'
p3475
asbag69
(g90
g71
NtRp3476
(dp3477
g74
(dp3478
g101
g102
ssg83
g3467
sg76
(lp3479
S':'
asbag69
(g90
g71
NtRp3480
(dp3481
g74
(dp3482
sg83
g3467
sg76
(lp3483
g69
(g70
g71
NtRp3484
(dp3485
g74
(dp3486
g82
I5
ssg83
g3480
sg76
(lp3487
g69
(g78
g71
NtRp3488
(dp3489
g74
(dp3490
g82
I4
ssg83
Nsg76
(lp3491
g69
(g85
g71
NtRp3492
(dp3493
g74
(dp3494
sg83
g3488
sg76
(lp3495
g69
(g90
g71
NtRp3496
(dp3497
g74
(dp3498
sg83
g3492
sg76
(lp3499
g69
(g70
g71
NtRp3500
(dp3501
g74
(dp3502
g82
I4
ssg83
g3496
sg76
(lp3503
S'*'
asbasbasbasbasbasbasbag69
(g85
g71
NtRp3504
(dp3505
g74
(dp3506
sg83
g3136
sg76
(lp3507
g69
(g90
g71
NtRp3508
(dp3509
g74
(dp3510
g94
g95
ssg83
g3504
sg76
(lp3511
S'headers'
p3512
asbag69
(g90
g71
NtRp3513
(dp3514
g74
(dp3515
g101
g102
ssg83
g3504
sg76
(lp3516
S':'
asbag69
(g90
g71
NtRp3517
(dp3518
g74
(dp3519
sg83
g3504
sg76
(lp3520
g69
(g70
g71
NtRp3521
(dp3522
g74
(dp3523
g82
I5
ssg83
g3517
sg76
(lp3524
g69
(g78
g71
NtRp3525
(dp3526
g74
(dp3527
g82
I4
ssg83
Nsg76
(lp3528
g69
(g85
g71
NtRp3529
(dp3530
g74
(dp3531
sg83
g3525
sg76
(lp3532
g69
(g90
g71
NtRp3533
(dp3534
g74
(dp3535
g94
g95
ssg83
g3529
sg76
(lp3536
S'Cache-Control'
p3537
asbag69
(g90
g71
NtRp3538
(dp3539
g74
(dp3540
g101
g102
ssg83
g3529
sg76
(lp3541
S':'
asbag69
(g90
g71
NtRp3542
(dp3543
g74
(dp3544
sg83
g3529
sg76
(lp3545
g69
(g70
g71
NtRp3546
(dp3547
g74
(dp3548
g82
I4
ssg83
g3542
sg76
(lp3549
S'no-store, no-cache, must-revalidate, post-check=0, pre-check=0'
p3550
asbasbasbag69
(g85
g71
NtRp3551
(dp3552
g74
(dp3553
sg83
g3525
sg76
(lp3554
g69
(g90
g71
NtRp3555
(dp3556
g74
(dp3557
g94
g95
ssg83
g3551
sg76
(lp3558
S'Content-Type'
p3559
asbag69
(g90
g71
NtRp3560
(dp3561
g74
(dp3562
g101
g102
ssg83
g3551
sg76
(lp3563
S':'
asbag69
(g90
g71
NtRp3564
(dp3565
g74
(dp3566
sg83
g3551
sg76
(lp3567
g69
(g70
g71
NtRp3568
(dp3569
g74
(dp3570
g82
I4
ssg83
g3564
sg76
(lp3571
S'text/html; charset=utf-8'
p3572
asbasbasbag69
(g85
g71
NtRp3573
(dp3574
g74
(dp3575
sg83
g3525
sg76
(lp3576
g69
(g90
g71
NtRp3577
(dp3578
g74
(dp3579
g94
g95
ssg83
g3573
sg76
(lp3580
S'Expires'
p3581
asbag69
(g90
g71
NtRp3582
(dp3583
g74
(dp3584
g101
g102
ssg83
g3573
sg76
(lp3585
S':'
asbag69
(g90
g71
NtRp3586
(dp3587
g74
(dp3588
sg83
g3573
sg76
(lp3589
g69
(g70
g71
NtRp3590
(dp3591
g74
(dp3592
g82
I4
ssg83
g3586
sg76
(lp3593
S'Thu, 12 Apr 2012 02:42:46 GMT'
p3594
asbasbasbag69
(g85
g71
NtRp3595
(dp3596
g74
(dp3597
sg83
g3525
sg76
(lp3598
g69
(g90
g71
NtRp3599
(dp3600
g74
(dp3601
g94
g95
ssg83
g3595
sg76
(lp3602
S'Pragma'
p3603
asbag69
(g90
g71
NtRp3604
(dp3605
g74
(dp3606
g101
g102
ssg83
g3595
sg76
(lp3607
S':'
asbag69
(g90
g71
NtRp3608
(dp3609
g74
(dp3610
sg83
g3595
sg76
(lp3611
g69
(g70
g71
NtRp3612
(dp3613
g74
(dp3614
g82
I4
ssg83
g3608
sg76
(lp3615
S'no-cache'
p3616
asbasbasbag69
(g85
g71
NtRp3617
(dp3618
g74
(dp3619
sg83
g3525
sg76
(lp3620
g69
(g90
g71
NtRp3621
(dp3622
g74
(dp3623
g94
g95
ssg83
g3617
sg76
(lp3624
S'X-Powered-By'
p3625
asbag69
(g90
g71
NtRp3626
(dp3627
g74
(dp3628
g101
g102
ssg83
g3617
sg76
(lp3629
S':'
asbag69
(g90
g71
NtRp3630
(dp3631
g74
(dp3632
sg83
g3617
sg76
(lp3633
g69
(g70
g71
NtRp3634
(dp3635
g74
(dp3636
g82
I4
ssg83
g3630
sg76
(lp3637
S'web2py'
p3638
asbasbasbasbasbasbasbag69
(g85
g71
NtRp3639
(dp3640
g74
(dp3641
sg83
g3136
sg76
(lp3642
g69
(g90
g71
NtRp3643
(dp3644
g74
(dp3645
g94
g95
ssg83
g3639
sg76
(lp3646
S'menu'
p3647
asbag69
(g90
g71
NtRp3648
(dp3649
g74
(dp3650
g101
g102
ssg83
g3639
sg76
(lp3651
S':'
asbag69
(g90
g71
NtRp3652
(dp3653
g74
(dp3654
sg83
g3639
sg76
(lp3655
g69
(g70
g71
NtRp3656
(dp3657
g74
(dp3658
g82
I5
ssg83
g3652
sg76
(lp3659
g69
(g78
g71
NtRp3660
(dp3661
g74
(dp3662
g82
I4
ssg83
Nsg76
(lp3663
sbasbasbasbag69
(g85
g71
NtRp3664
(dp3665
g74
(dp3666
sg83
g3136
sg76
(lp3667
g69
(g90
g71
NtRp3668
(dp3669
g74
(dp3670
g94
g95
ssg83
g3664
sg76
(lp3671
S'meta'
p3672
asbag69
(g90
g71
NtRp3673
(dp3674
g74
(dp3675
g101
g102
ssg83
g3664
sg76
(lp3676
S':'
asbag69
(g90
g71
NtRp3677
(dp3678
g74
(dp3679
sg83
g3664
sg76
(lp3680
g69
(g70
g71
NtRp3681
(dp3682
g74
(dp3683
g82
I5
ssg83
g3677
sg76
(lp3684
g69
(g78
g71
NtRp3685
(dp3686
g74
(dp3687
g82
I4
ssg83
Nsg76
(lp3688
sbasbasbasbag69
(g85
g71
NtRp3689
(dp3690
g74
(dp3691
sg83
g3136
sg76
(lp3692
g69
(g90
g71
NtRp3693
(dp3694
g74
(dp3695
g94
g95
ssg83
g3689
sg76
(lp3696
S'postprocessing'
p3697
asbag69
(g90
g71
NtRp3698
(dp3699
g74
(dp3700
g101
g102
ssg83
g3689
sg76
(lp3701
S':'
asbag69
(g90
g71
NtRp3702
(dp3703
g74
(dp3704
sg83
g3689
sg76
(lp3705
g69
(g70
g71
NtRp3706
(dp3707
g74
(dp3708
g82
I5
ssg83
g3702
sg76
(lp3709
g69
(g78
g71
NtRp3710
(dp3711
g74
(dp3712
g82
I4
ssg83
Nsg76
(lp3713
sbasbasbasbag69
(g85
g71
NtRp3714
(dp3715
g74
(dp3716
sg83
g3136
sg76
(lp3717
g69
(g90
g71
NtRp3718
(dp3719
g74
(dp3720
g94
g95
ssg83
g3714
sg76
(lp3721
S'session_file'
p3722
asbag69
(g90
g71
NtRp3723
(dp3724
g74
(dp3725
g101
g102
ssg83
g3714
sg76
(lp3726
S':'
asbag69
(g90
g71
NtRp3727
(dp3728
g74
(dp3729
sg83
g3714
sg76
(lp3730
g69
(g70
g71
NtRp3731
(dp3732
g74
(dp3733
g82
I5
ssg83
g3727
sg76
(lp3734
S"<open file '/home/marco/projects/final/web2py/applications/woppi/sessions/127.0.0.1-5358e1c7-4082-415c-902e-9d9a4b1fcb2a', mode 'rb+' at 0x1ff4e40>"
p3735
asbasbasbag69
(g85
g71
NtRp3736
(dp3737
g74
(dp3738
sg83
g3136
sg76
(lp3739
g69
(g90
g71
NtRp3740
(dp3741
g74
(dp3742
g94
g95
ssg83
g3736
sg76
(lp3743
S'session_filename'
p3744
asbag69
(g90
g71
NtRp3745
(dp3746
g74
(dp3747
g101
g102
ssg83
g3736
sg76
(lp3748
S':'
asbag69
(g90
g71
NtRp3749
(dp3750
g74
(dp3751
sg83
g3736
sg76
(lp3752
g69
(g70
g71
NtRp3753
(dp3754
g74
(dp3755
g82
I5
ssg83
g3749
sg76
(lp3756
S'/home/marco/projects/final/web2py/applications/woppi/sessions/127.0.0.1-5358e1c7-4082-415c-902e-9d9a4b1fcb2a'
p3757
asbasbasbag69
(g85
g71
NtRp3758
(dp3759
g74
(dp3760
sg83
g3136
sg76
(lp3761
g69
(g90
g71
NtRp3762
(dp3763
g74
(dp3764
g94
g95
ssg83
g3758
sg76
(lp3765
S'session_id'
p3766
asbag69
(g90
g71
NtRp3767
(dp3768
g74
(dp3769
g101
g102
ssg83
g3758
sg76
(lp3770
S':'
asbag69
(g90
g71
NtRp3771
(dp3772
g74
(dp3773
sg83
g3758
sg76
(lp3774
g69
(g70
g71
NtRp3775
(dp3776
g74
(dp3777
g82
I5
ssg83
g3771
sg76
(lp3778
S'127.0.0.1-5358e1c7-4082-415c-902e-9d9a4b1fcb2a'
p3779
asbasbasbag69
(g85
g71
NtRp3780
(dp3781
g74
(dp3782
sg83
g3136
sg76
(lp3783
g69
(g90
g71
NtRp3784
(dp3785
g74
(dp3786
g94
g95
ssg83
g3780
sg76
(lp3787
S'session_id_name'
p3788
asbag69
(g90
g71
NtRp3789
(dp3790
g74
(dp3791
g101
g102
ssg83
g3780
sg76
(lp3792
S':'
asbag69
(g90
g71
NtRp3793
(dp3794
g74
(dp3795
sg83
g3780
sg76
(lp3796
g69
(g70
g71
NtRp3797
(dp3798
g74
(dp3799
g82
I5
ssg83
g3793
sg76
(lp3800
g3193
asbasbasbag69
(g85
g71
NtRp3801
(dp3802
g74
(dp3803
sg83
g3136
sg76
(lp3804
g69
(g90
g71
NtRp3805
(dp3806
g74
(dp3807
g94
g95
ssg83
g3801
sg76
(lp3808
S'session_locked'
p3809
asbag69
(g90
g71
NtRp3810
(dp3811
g74
(dp3812
g101
g102
ssg83
g3801
sg76
(lp3813
S':'
asbag69
(g90
g71
NtRp3814
(dp3815
g74
(dp3816
sg83
g3801
sg76
(lp3817
g69
(g70
g71
NtRp3818
(dp3819
g74
(dp3820
g82
I5
ssg83
g3814
sg76
(lp3821
g1716
asbasbasbag69
(g85
g71
NtRp3822
(dp3823
g74
(dp3824
sg83
g3136
sg76
(lp3825
g69
(g90
g71
NtRp3826
(dp3827
g74
(dp3828
g94
g95
ssg83
g3822
sg76
(lp3829
S'session_new'
p3830
asbag69
(g90
g71
NtRp3831
(dp3832
g74
(dp3833
g101
g102
ssg83
g3822
sg76
(lp3834
S':'
asbag69
(g90
g71
NtRp3835
(dp3836
g74
(dp3837
sg83
g3822
sg76
(lp3838
g69
(g70
g71
NtRp3839
(dp3840
g74
(dp3841
g82
I5
ssg83
g3835
sg76
(lp3842
g112
asbasbasbag69
(g85
g71
NtRp3843
(dp3844
g74
(dp3845
sg83
g3136
sg76
(lp3846
g69
(g90
g71
NtRp3847
(dp3848
g74
(dp3849
g94
g95
ssg83
g3843
sg76
(lp3850
S'status'
p3851
asbag69
(g90
g71
NtRp3852
(dp3853
g74
(dp3854
g101
g102
ssg83
g3843
sg76
(lp3855
S':'
asbag69
(g90
g71
NtRp3856
(dp3857
g74
(dp3858
sg83
g3843
sg76
(lp3859
g69
(g70
g71
NtRp3860
(dp3861
g74
(dp3862
g82
I5
ssg83
g3856
sg76
(lp3863
S'200'
p3864
asbasbasbag69
(g85
g71
NtRp3865
(dp3866
g74
(dp3867
sg83
g3136
sg76
(lp3868
g69
(g90
g71
NtRp3869
(dp3870
g74
(dp3871
g94
g95
ssg83
g3865
sg76
(lp3872
g2402
asbag69
(g90
g71
NtRp3873
(dp3874
g74
(dp3875
g101
g102
ssg83
g3865
sg76
(lp3876
S':'
asbag69
(g90
g71
NtRp3877
(dp3878
g74
(dp3879
sg83
g3865
sg76
(lp3880
g69
(g70
g71
NtRp3881
(dp3882
g74
(dp3883
g82
I5
ssg83
g3877
sg76
(lp3884
g2415
asbasbasbag69
(g85
g71
NtRp3885
(dp3886
g74
(dp3887
sg83
g3136
sg76
(lp3888
g69
(g90
g71
NtRp3889
(dp3890
g74
(dp3891
g94
g95
ssg83
g3885
sg76
(lp3892
S'view'
p3893
asbag69
(g90
g71
NtRp3894
(dp3895
g74
(dp3896
g101
g102
ssg83
g3885
sg76
(lp3897
S':'
asbag69
(g90
g71
NtRp3898
(dp3899
g74
(dp3900
sg83
g3885
sg76
(lp3901
g69
(g70
g71
NtRp3902
(dp3903
g74
(dp3904
g82
I5
ssg83
g3898
sg76
(lp3905
S'interno/personal.html'
p3906
asbasbasbasbasbsS'locals'
p3907
(dp3908
g4
S"'/home/marco/projects/final/web2py/applications/woppi/models/db_interno.py'"
p3909
sg6
S'"# -*- coding: utf-8 -*-\\n\\ndb.define_table(\'especi...ormat = \'%(id)s - %(apellido)s %(nombre)s\'\\n    )\\n"'
p3910
sssS'traceback'
p3911
S'Traceback (most recent call last):\n  File "/home/marco/projects/final/web2py/gluon/restricted.py", line 204, in restricted\n    ccode = compile2(code,layer)\n  File "/home/marco/projects/final/web2py/gluon/restricted.py", line 189, in compile2\n    return compile(code.rstrip().replace(\'\\r\\n\',\'\\n\')+\'\\n\', layer, \'exec\')\n  File "/home/marco/projects/final/web2py/applications/woppi/models/db_interno.py", line 34\n    Field(\'fealta\',\'datetime\',default=request.now,writable=False,default=\'Fecha de alta\'),\nSyntaxError: keyword argument repeated\n'
p3912
s.